

Microchip MPLAB XC8 Assembler V2.45 build 20230818022343 
                                                                                               Wed Feb 21 10:51:18 2024

Microchip MPLAB XC8 C Compiler v2.45 (Free license) build 20230818022343 Og1 
     1                           	processor	18F87K22
     2                           	fnconf	rparam,??,?,0
     3                           	pagewidth 120
     4                           	opt	flic
     5                           	psect	idataCOMRAM,global,class=CODE,delta=1,noexec
     6                           	psect	nvCOMRAM,global,class=COMRAM,space=1,delta=1,lowdata,noexec
     7                           	psect	nvBANK0,global,class=BANK0,space=1,delta=1,lowdata,noexec
     8                           	psect	cinit,global,reloc=2,class=CODE,delta=1
     9                           	psect	bssCOMRAM,global,class=COMRAM,space=1,delta=1,lowdata,noexec
    10                           	psect	dataCOMRAM,global,class=COMRAM,space=1,delta=1,lowdata,noexec
    11                           	psect	bssBIGRAM,global,class=BIGRAM,space=1,delta=1,noexec
    12                           	psect	cstackBANK0,global,class=BANK0,space=1,delta=1,lowdata,noexec
    13                           	psect	cstackCOMRAM,global,class=COMRAM,space=1,delta=1,lowdata,noexec
    14                           	psect	text0,global,reloc=2,class=CODE,delta=1
    15                           	psect	text1,global,reloc=2,class=CODE,delta=1
    16                           	psect	text2,global,reloc=2,class=CODE,delta=1
    17                           	psect	text3,global,reloc=2,class=CODE,delta=1
    18                           	psect	text4,global,reloc=2,class=CODE,delta=1
    19                           	psect	text5,global,reloc=2,class=CODE,delta=1,group=2
    20                           	psect	text6,global,reloc=2,class=CODE,delta=1,group=1
    21                           	psect	text7,global,reloc=2,class=CODE,delta=1,group=1
    22                           	psect	text8,global,reloc=2,class=CODE,delta=1,group=1
    23                           	psect	text9,global,reloc=2,class=CODE,delta=1,group=1
    24                           	psect	text10,global,reloc=2,class=CODE,delta=1
    25                           	psect	text11,global,reloc=2,class=CODE,delta=1
    26                           	psect	text12,global,reloc=2,class=CODE,delta=1
    27                           	psect	text13,global,reloc=2,class=CODE,delta=1
    28                           	psect	text14,global,reloc=2,class=CODE,delta=1
    29                           	psect	text15,global,reloc=2,class=CODE,delta=1
    30                           	psect	text16,global,reloc=2,class=CODE,delta=1
    31                           	psect	text17,global,reloc=2,class=CODE,delta=1
    32                           	psect	text18,global,reloc=2,class=CODE,delta=1
    33                           	psect	text19,global,reloc=2,class=CODE,delta=1
    34                           	psect	text20,global,reloc=2,class=CODE,delta=1
    35                           	psect	text21,global,reloc=2,class=CODE,delta=1
    36                           	psect	text22,global,reloc=2,class=CODE,delta=1
    37                           	psect	text23,global,reloc=2,class=CODE,delta=1
    38                           	psect	text24,global,reloc=2,class=CODE,delta=1
    39                           	psect	text25,global,reloc=2,class=CODE,delta=1,group=1
    40                           	psect	intcode,global,reloc=2,class=CODE,delta=1
    41                           	psect	text27,global,reloc=2,class=CODE,delta=1
    42                           	psect	text28,global,reloc=2,class=CODE,delta=1
    43                           	psect	text29,global,reloc=2,class=CODE,delta=1
    44                           	psect	text30,global,reloc=2,class=CODE,delta=1
    45                           	psect	text31,global,reloc=2,class=CODE,delta=1
    46                           	psect	smallconst,global,reloc=2,class=SMALLCONST,delta=1,noexec
    47                           	psect	intsave_regs,global,class=BIGRAM,space=1,delta=1,noexec
    48                           	psect	text32,global,reloc=2,class=CODE,delta=1
    49                           	psect	rparam,global,class=COMRAM,space=1,delta=1,noexec
    50                           	psect	temp,global,ovrld,common,class=COMRAM,space=1,delta=1
    51                           	psect	config,global,abs,ovrld,class=CONFIG,space=4,delta=1,noexec
    52   000000                     
    53                           ; Generated 21/07/2023 GMT
    54                           ; 
    55                           ; Copyright © 2023, Microchip Technology Inc. and its subsidiaries ("Microchip")
    56                           ; All rights reserved.
    57                           ; 
    58                           ; This software is developed by Microchip Technology Inc. and its subsidiaries ("Microch
      +                          ip").
    59                           ; 
    60                           ; Redistribution and use in source and binary forms, with or without modification, are
    61                           ; permitted provided that the following conditions are met:
    62                           ; 
    63                           ;     1. Redistributions of source code must retain the above copyright notice, this lis
      +                          t of
    64                           ;        conditions and the following disclaimer.
    65                           ; 
    66                           ;     2. Redistributions in binary form must reproduce the above copyright notice, this 
      +                          list
    67                           ;        of conditions and the following disclaimer in the documentation and/or other
    68                           ;        materials provided with the distribution. Publication is not required when
    69                           ;        this file is used in an embedded application.
    70                           ; 
    71                           ;     3. Microchip's name may not be used to endorse or promote products derived from th
      +                          is
    72                           ;        software without specific prior written permission.
    73                           ; 
    74                           ; THIS SOFTWARE IS PROVIDED BY MICROCHIP "AS IS" AND ANY EXPRESS OR IMPLIED WARRANTIES,
    75                           ; INCLUDING, BUT NOT LIMITED TO, THE IMPLIED WARRANTIES OF MERCHANTABILITY AND FITNESS F
      +                          OR
    76                           ; PURPOSE ARE DISCLAIMED.  IN NO EVENT SHALL MICROCHIP BE LIABLE FOR ANY DIRECT, INDIREC
      +                          T,
    77                           ; INCIDENTAL, SPECIAL, EXEMPLARY, OR CONSEQUENTIAL DAMAGES (INCLUDING BUT NOT LIMITED TO
    78                           ; PROCUREMENT OF SUBSTITUTE GOODS OR SERVICES; LOSS OF USE, DATA OR PROFITS; OR BUSINESS
    79                           ; INTERRUPTION) HOWSOEVER CAUSED AND ON ANY THEORY OF LIABILITY, WHETHER IN CONTRACT, ST
      +                          RICT
    80                           ; LIABILITY, OR TORT (INCLUDING NEGLIGENCE OR OTHERWISE) ARISING IN ANY WAY OUT OF THE U
      +                          SE OF
    81                           ; THIS SOFTWARE, EVEN IF ADVISED OF THE POSSIBILITY OF SUCH DAMAGE.
    82                           ; 
    83                           ; 
    84                           ; Code-generator required, PIC18F87K22 Definitions
    85                           ; 
    86                           ; SFR Addresses
    87   000000                     
    88 ;; Function _EUSART1_DefaultFramingErrorHandler is unused but had its address taken
    89   000000                     
    90 ;; Function _EUSART1_DefaultOverrunErrorHandler is unused but had its address taken
    91   000000                     
    92 ;; Function _EUSART1_DefaultErrorHandler is unused but had its address taken
    93   000000                     
    94                           	psect	idataCOMRAM
    95   0028F8                     __pidataCOMRAM:
    96                           	callstack 0
    97                           
    98                           ;initializer for _prag_T
    99   0028F8  C8                 	db	200
   100   000000                     _TXREG1	set	4013
   101   000000                     _RCREG1	set	4014
   102   000000                     _SPBRGH1	set	4052
   103   000000                     _SPBRG1	set	4015
   104   000000                     _TXSTA1	set	4012
   105   000000                     _TMR0L	set	4054
   106   000000                     _TMR0H	set	4055
   107   000000                     _T0CONbits	set	4053
   108   000000                     _ADRESL	set	4035
   109   000000                     _ADRESH	set	4036
   110   000000                     _T5CON	set	3963
   111   000000                     _TMR5L	set	3964
   112   000000                     _TMR5H	set	3965
   113   000000                     _TRISD	set	3989
   114   000000                     _TRISC	set	3988
   115   000000                     _TRISB	set	3987
   116   000000                     _LATC	set	3979
   117   000000                     _LATB	set	3978
   118   000000                     _INTCONbits	set	4082
   119                           
   120                           	psect	nvCOMRAM
   121   00004E                     __pnvCOMRAM:
   122                           	callstack 0
   123   00004E                     _TMR0_InterruptHandler:
   124                           	callstack 0
   125   00004E                     	ds	3
   126   000051                     _TMR5_InterruptHandler:
   127                           	callstack 0
   128   000051                     	ds	3
   129   000054                     _bufferIndex:
   130                           	callstack 0
   131   000054                     	ds	2
   132                           
   133                           	psect	nvBANK0
   134   000060                     __pnvBANK0:
   135                           	callstack 0
   136   000060                     _EUSART1_ErrorHandler:
   137                           	callstack 0
   138   000060                     	ds	3
   139   000063                     _EUSART1_OverrunErrorHandler:
   140                           	callstack 0
   141   000063                     	ds	3
   142   000066                     _EUSART1_FramingErrorHandler:
   143                           	callstack 0
   144   000066                     	ds	3
   145   000000                     _RCSTA1bits	set	4011
   146   000000                     _TXSTA1bits	set	4012
   147   000000                     _T0CON	set	4053
   148   000000                     _ADCON0bits	set	4034
   149   000000                     _LATBbits	set	3978
   150   000000                     _T5GCONbits	set	3962
   151   000000                     _T5CONbits	set	3963
   152   000000                     _ANCON2	set	3875
   153   000000                     _ANCON1	set	3876
   154   000000                     _ANCON0	set	3877
   155   000000                     _REFOCON	set	3882
   156   000000                     _OSCCON2	set	3940
   157   000000                     _OSCCON	set	4051
   158   000000                     _BAUDCON1	set	3941
   159   000000                     _T5GCON	set	3962
   160   000000                     _LATA	set	3977
   161   000000                     _LATD	set	3980
   162   000000                     _LATE	set	3981
   163   000000                     _OSCTUNE	set	3995
   164   000000                     _PIR1bits	set	3998
   165   000000                     _RCSTA1	set	4011
   166   000000                     _PIE5bits	set	4025
   167   000000                     _RCONbits	set	4048
   168   000000                     _ADCON2	set	4032
   169   000000                     _ADCON1	set	4033
   170   000000                     _ADCON0	set	4034
   171   000000                     _PIR5bits	set	4026
   172   000000                     _TRISA	set	3986
   173   000000                     _TRISE	set	3990
   174   000000                     _LATH	set	3984
   175   000000                     _LATG	set	3983
   176   000000                     _LATF	set	3982
   177   000000                     _TRISH	set	3993
   178   000000                     _TRISG	set	3992
   179   000000                     _TRISF	set	3991
   180                           
   181                           ; #config settings
   182                           
   183                           	psect	cinit
   184   0026CE                     __pcinit:
   185                           	callstack 0
   186   0026CE                     start_initialization:
   187                           	callstack 0
   188   0026CE                     __initialization:
   189                           	callstack 0
   190                           
   191                           ; Initialize objects allocated to COMRAM (1 bytes)
   192                           ; load TBLPTR registers with __pidataCOMRAM
   193   0026CE  0EF8               	movlw	low __pidataCOMRAM
   194   0026D0  6EF6               	movwf	tblptrl,c
   195   0026D2  0E28               	movlw	high __pidataCOMRAM
   196   0026D4  6EF7               	movwf	tblptrh,c
   197   0026D6  0E00               	movlw	low (__pidataCOMRAM shr (0+16))
   198   0026D8  6EF8               	movwf	tblptru,c
   199   0026DA  0009               	tblrd		*+	;fetch initializer
   200   0026DC  CFF5 F056          	movff	tablat,__pdataCOMRAM
   201                           
   202                           ; Clear objects allocated to BIGRAM (3600 bytes)
   203   0026E0  EE00  F071         	lfsr	0,__pbssBIGRAM
   204   0026E4  EE1E F010          	lfsr	1,3600
   205   0026E8                     clear_0:
   206   0026E8  6AEE               	clrf	postinc0,c
   207   0026EA  50E5               	movf	postdec1,w,c
   208   0026EC  50E1               	movf	fsr1l,w,c
   209   0026EE  E1FC               	bnz	clear_0
   210   0026F0  50E2               	movf	fsr1h,w,c
   211   0026F2  E1FA               	bnz	clear_0
   212                           
   213                           ; Clear objects allocated to COMRAM (15 bytes)
   214   0026F4  EE00  F03F         	lfsr	0,__pbssCOMRAM
   215   0026F8  0E0F               	movlw	15
   216   0026FA                     clear_1:
   217   0026FA  6AEE               	clrf	postinc0,c
   218   0026FC  06E8               	decf	wreg,f,c
   219   0026FE  E1FD               	bnz	clear_1
   220   002700                     end_of_initialization:
   221                           	callstack 0
   222   002700                     __end_of__initialization:
   223                           	callstack 0
   224   002700  9057               	bcf	int$flags,0,c	;clear compiler interrupt flag (level 1)
   225   002702  9257               	bcf	int$flags,1,c	;clear compiler interrupt flag (level 2)
   226   002704  0100               	movlb	0
   227   002706  EFAB  F011         	goto	_main	;jump to C main() function
   228                           
   229                           	psect	bssCOMRAM
   230   00003F                     __pbssCOMRAM:
   231                           	callstack 0
   232   00003F                     _ADC_InterruptHandler:
   233                           	callstack 0
   234   00003F                     	ds	3
   235   000042                     _errno:
   236                           	callstack 0
   237   000042                     	ds	2
   238   000044                     _timer0ReloadVal:
   239                           	callstack 0
   240   000044                     	ds	2
   241   000046                     _timer5ReloadVal:
   242                           	callstack 0
   243   000046                     	ds	2
   244   000048                     _eusart1RxLastError:
   245                           	callstack 0
   246   000048                     	ds	1
   247   000049                     _flag_tmr0:
   248                           	callstack 0
   249   000049                     	ds	1
   250   00004A                     _scaled_value:
   251                           	callstack 0
   252   00004A                     	ds	1
   253   00004B                     _servo:
   254                           	callstack 0
   255   00004B                     	ds	1
   256   00004C                     _brojac_T_on:
   257                           	callstack 0
   258   00004C                     	ds	1
   259   00004D                     _brojac_T:
   260                           	callstack 0
   261   00004D                     	ds	1
   262                           
   263                           	psect	dataCOMRAM
   264   000056                     __pdataCOMRAM:
   265                           	callstack 0
   266   000056                     _prag_T:
   267                           	callstack 0
   268   000056                     	ds	1
   269                           
   270                           	psect	bssBIGRAM
   271   000071                     __pbssBIGRAM:
   272                           	callstack 0
   273   000071                     _circularBuffer:
   274                           	callstack 0
   275   000071                     	ds	3600
   276                           
   277                           	psect	cstackBANK0
   278   000069                     __pcstackBANK0:
   279                           	callstack 0
   280   000069                     main@stdDev:
   281                           	callstack 0
   282                           
   283                           ; 4 bytes @ 0x0
   284   000069                     	ds	4
   285   00006D                     main@value:
   286                           	callstack 0
   287                           
   288                           ; 2 bytes @ 0x4
   289   00006D                     	ds	2
   290   00006F                     main@average:
   291                           	callstack 0
   292                           
   293                           ; 2 bytes @ 0x6
   294   00006F                     	ds	2
   295                           
   296                           	psect	cstackCOMRAM
   297   000001                     __pcstackCOMRAM:
   298                           	callstack 0
   299   000001                     ??_TMR5_DefaultInterruptHandler:
   300   000001                     TMR5_WriteTimer@timerVal:
   301                           	callstack 0
   302                           
   303                           ; 2 bytes @ 0x0
   304   000001                     	ds	2
   305   000003                     ??_INTERRUPT_InterruptManager:
   306   000003                     
   307                           ; 1 bytes @ 0x2
   308   000003                     	ds	2
   309   000005                     ?_ADC_GetConversion:
   310                           	callstack 0
   311   000005                     ?___lwmod:
   312                           	callstack 0
   313   000005                     ?_sqrtf:
   314                           	callstack 0
   315   000005                     ?___fldiv:
   316                           	callstack 0
   317   000005                     ?___flmul:
   318                           	callstack 0
   319   000005                     EUSART1_Write@txData:
   320                           	callstack 0
   321   000005                     ___lwmod@dividend:
   322                           	callstack 0
   323   000005                     TMR5_SetInterruptHandler@InterruptHandler:
   324                           	callstack 0
   325   000005                     TMR0_SetInterruptHandler@InterruptHandler:
   326                           	callstack 0
   327   000005                     EUSART1_SetFramingErrorHandler@interruptHandler:
   328                           	callstack 0
   329   000005                     EUSART1_SetOverrunErrorHandler@interruptHandler:
   330                           	callstack 0
   331   000005                     EUSART1_SetErrorHandler@interruptHandler:
   332                           	callstack 0
   333   000005                     ___fldiv@b:
   334                           	callstack 0
   335   000005                     ___flmul@b:
   336                           	callstack 0
   337   000005                     sqrtf@x:
   338                           	callstack 0
   339                           
   340                           ; 4 bytes @ 0x4
   341   000005                     	ds	2
   342   000007                     ??_ADC_GetConversion:
   343   000007                     ___lwmod@divisor:
   344                           	callstack 0
   345                           
   346                           ; 2 bytes @ 0x6
   347   000007                     	ds	1
   348   000008                     ??_TMR5_Initialize:
   349   000008                     ??_TMR0_Initialize:
   350   000008                     
   351                           ; 1 bytes @ 0x7
   352   000008                     	ds	1
   353   000009                     ??_sqrtf:
   354   000009                     ADC_GetConversion@channel:
   355                           	callstack 0
   356   000009                     ___lwmod@counter:
   357                           	callstack 0
   358   000009                     ___fldiv@a:
   359                           	callstack 0
   360   000009                     ___flmul@a:
   361                           	callstack 0
   362                           
   363                           ; 4 bytes @ 0x8
   364   000009                     	ds	1
   365   00000A                     ?_AveregeFilter:
   366                           	callstack 0
   367   00000A                     ?___xxtofl:
   368                           	callstack 0
   369   00000A                     sampleSignal@sample:
   370                           	callstack 0
   371   00000A                     ___xxtofl@val:
   372                           	callstack 0
   373                           
   374                           ; 4 bytes @ 0x9
   375   00000A                     	ds	2
   376   00000C                     ??_AveregeFilter:
   377                           
   378                           ; 1 bytes @ 0xB
   379   00000C                     	ds	1
   380   00000D                     ??___fldiv:
   381   00000D                     ??___flmul:
   382                           
   383                           ; 1 bytes @ 0xC
   384   00000D                     	ds	1
   385   00000E                     ??___xxtofl:
   386   00000E                     sqrtf@s:
   387                           	callstack 0
   388                           
   389                           ; 4 bytes @ 0xD
   390   00000E                     	ds	2
   391   000010                     AveregeFilter@sum:
   392                           	callstack 0
   393                           
   394                           ; 4 bytes @ 0xF
   395   000010                     	ds	1
   396   000011                     ___flmul@sign:
   397                           	callstack 0
   398   000011                     ___fldiv@rem:
   399                           	callstack 0
   400                           
   401                           ; 4 bytes @ 0x10
   402   000011                     	ds	1
   403   000012                     ___flmul@aexp:
   404                           	callstack 0
   405   000012                     ___xxtofl@sign:
   406                           	callstack 0
   407   000012                     sqrtf@i:
   408                           	callstack 0
   409                           
   410                           ; 4 bytes @ 0x11
   411   000012                     	ds	1
   412   000013                     ___xxtofl@exp:
   413                           	callstack 0
   414   000013                     ___flmul@grs:
   415                           	callstack 0
   416                           
   417                           ; 4 bytes @ 0x12
   418   000013                     	ds	1
   419   000014                     AveregeFilter@i:
   420                           	callstack 0
   421   000014                     ___xxtofl@arg:
   422                           	callstack 0
   423                           
   424                           ; 4 bytes @ 0x13
   425   000014                     	ds	1
   426   000015                     ___fldiv@sign:
   427                           	callstack 0
   428                           
   429                           ; 1 bytes @ 0x14
   430   000015                     	ds	1
   431   000016                     ___fldiv@new_exp:
   432                           	callstack 0
   433   000016                     sqrtf@q:
   434                           	callstack 0
   435                           
   436                           ; 4 bytes @ 0x15
   437   000016                     	ds	1
   438   000017                     ___flmul@bexp:
   439                           	callstack 0
   440                           
   441                           ; 1 bytes @ 0x16
   442   000017                     	ds	1
   443   000018                     ___fldiv@grs:
   444                           	callstack 0
   445   000018                     ___flmul@prod:
   446                           	callstack 0
   447                           
   448                           ; 4 bytes @ 0x17
   449   000018                     	ds	2
   450   00001A                     sqrtf@t:
   451                           	callstack 0
   452                           
   453                           ; 4 bytes @ 0x19
   454   00001A                     	ds	2
   455   00001C                     ___fldiv@bexp:
   456                           	callstack 0
   457   00001C                     ___flmul@temp:
   458                           	callstack 0
   459                           
   460                           ; 2 bytes @ 0x1B
   461   00001C                     	ds	1
   462   00001D                     ___fldiv@aexp:
   463                           	callstack 0
   464                           
   465                           ; 1 bytes @ 0x1C
   466   00001D                     	ds	1
   467   00001E                     ?_calculateThreshold:
   468                           	callstack 0
   469   00001E                     ?___fladd:
   470                           	callstack 0
   471   00001E                     calculateThreshold@stdDev:
   472                           	callstack 0
   473   00001E                     ___fladd@b:
   474                           	callstack 0
   475   00001E                     sqrtf@m:
   476                           	callstack 0
   477                           
   478                           ; 4 bytes @ 0x1D
   479   00001E                     	ds	4
   480   000022                     ___fladd@a:
   481                           	callstack 0
   482   000022                     sqrtf@r:
   483                           	callstack 0
   484                           
   485                           ; 4 bytes @ 0x21
   486   000022                     	ds	4
   487   000026                     ??___fladd:
   488   000026                     sqrtf@ix:
   489                           	callstack 0
   490                           
   491                           ; 4 bytes @ 0x25
   492   000026                     	ds	4
   493   00002A                     ___fladd@signs:
   494                           	callstack 0
   495                           
   496                           ; 1 bytes @ 0x29
   497   00002A                     	ds	1
   498   00002B                     ___fladd@aexp:
   499                           	callstack 0
   500                           
   501                           ; 1 bytes @ 0x2A
   502   00002B                     	ds	1
   503   00002C                     ___fladd@bexp:
   504                           	callstack 0
   505                           
   506                           ; 1 bytes @ 0x2B
   507   00002C                     	ds	1
   508   00002D                     ___fladd@grs:
   509                           	callstack 0
   510                           
   511                           ; 1 bytes @ 0x2C
   512   00002D                     	ds	1
   513   00002E                     ?_StandardDev:
   514                           	callstack 0
   515   00002E                     StandardDev@average:
   516                           	callstack 0
   517                           
   518                           ; 2 bytes @ 0x2D
   519   00002E                     	ds	4
   520   000032                     ??_StandardDev:
   521                           
   522                           ; 1 bytes @ 0x31
   523   000032                     	ds	4
   524   000036                     StandardDev@razlika:
   525                           	callstack 0
   526                           
   527                           ; 4 bytes @ 0x35
   528   000036                     	ds	4
   529   00003A                     StandardDev@variance:
   530                           	callstack 0
   531                           
   532                           ; 4 bytes @ 0x39
   533   00003A                     	ds	4
   534   00003E                     StandardDev@i:
   535                           	callstack 0
   536                           
   537                           ; 1 bytes @ 0x3D
   538   00003E                     	ds	1
   539   00003F                     
   540                           ; 1 bytes @ 0x3E
   541 ;;
   542 ;;Main: autosize = 0, tempsize = 0, incstack = 0, save=0
   543 ;;
   544 ;; *************** function _main *****************
   545 ;; Defined at:
   546 ;;		line 111 in file "main.c"
   547 ;; Parameters:    Size  Location     Type
   548 ;;		None
   549 ;; Auto vars:     Size  Location     Type
   550 ;;  stdDev          4    0[BANK0 ] float 
   551 ;;  average         2    6[BANK0 ] unsigned short 
   552 ;;  threshold       2    0        unsigned short 
   553 ;;  value           2    4[BANK0 ] unsigned short 
   554 ;; Return value:  Size  Location     Type
   555 ;;                  1    wreg      void 
   556 ;; Registers used:
   557 ;;		wreg, fsr2l, fsr2h, status,2, status,0, prodl, prodh, cstack
   558 ;; Tracked objects:
   559 ;;		On entry : 0/0
   560 ;;		On exit  : 0/0
   561 ;;		Unchanged: 0/0
   562 ;; Data sizes:     COMRAM   BANK0   BANK1   BANK2   BANK3   BANK4   BANK5   BANK6   BANK7   BANK8   BANK9  BANK10  BANK1
      +1  BANK12  BANK13  BANK14  BANK15
   563 ;;      Params:         0       0       0       0       0       0       0       0       0       0       0       0       
      +0       0       0       0       0
   564 ;;      Locals:         0       8       0       0       0       0       0       0       0       0       0       0       
      +0       0       0       0       0
   565 ;;      Temps:          0       0       0       0       0       0       0       0       0       0       0       0       
      +0       0       0       0       0
   566 ;;      Totals:         0       8       0       0       0       0       0       0       0       0       0       0       
      +0       0       0       0       0
   567 ;;Total ram usage:        8 bytes
   568 ;; Hardware stack levels required when called: 6
   569 ;; This function calls:
   570 ;;		_ADC_GetConversion
   571 ;;		_AveregeFilter
   572 ;;		_EUSART1_Write
   573 ;;		_SYSTEM_Initialize
   574 ;;		_StandardDev
   575 ;;		_calculateThreshold
   576 ;;		_sampleSignal
   577 ;; This function is called by:
   578 ;;		Startup code after reset
   579 ;; This function uses a non-reentrant model
   580 ;;
   581                           
   582                           	psect	text0
   583   002356                     __ptext0:
   584                           	callstack 0
   585   002356                     _main:
   586                           	callstack 25
   587   002356                     
   588                           ;main.c: 114:     SYSTEM_Initialize();
   589   002356  EC25  F014         	call	_SYSTEM_Initialize	;wreg free
   590   00235A                     
   591                           ;main.c: 121:     (INTCONbits.GIE = 1);
   592   00235A  8EF2               	bsf	242,7,c	;volatile
   593   00235C                     
   594                           ;main.c: 127:     (INTCONbits.PEIE = 1);
   595   00235C  8CF2               	bsf	242,6,c	;volatile
   596   00235E                     l438:
   597                           
   598                           ;main.c: 134:     {;main.c: 135:         value = ADC_GetConversion(channel_AN0);
   599   00235E  0E00               	movlw	0
   600   002360  ECA3  F013         	call	_ADC_GetConversion
   601   002364  C005  F06D         	movff	?_ADC_GetConversion,main@value
   602   002368  C006  F06E         	movff	?_ADC_GetConversion+1,main@value+1
   603   00236C                     
   604                           ;main.c: 137:         sampleSignal();
   605   00236C  ECD3  F012         	call	_sampleSignal	;wreg free
   606   002370                     
   607                           ;main.c: 138:         uint16_t average = AveregeFilter();
   608   002370  EC02  F012         	call	_AveregeFilter	;wreg free
   609   002374  C00A  F06F         	movff	?_AveregeFilter,main@average
   610   002378  C00B  F070         	movff	?_AveregeFilter+1,main@average+1
   611   00237C                     
   612                           ;main.c: 139:         float stdDev = StandardDev(average);
   613   00237C  C06F  F02E         	movff	main@average,StandardDev@average
   614   002380  C070  F02F         	movff	main@average+1,StandardDev@average+1
   615   002384  EC0B  F011         	call	_StandardDev	;wreg free
   616   002388  C02E  F069         	movff	?_StandardDev,main@stdDev
   617   00238C  C02F  F06A         	movff	?_StandardDev+1,main@stdDev+1
   618   002390  C030  F06B         	movff	?_StandardDev+2,main@stdDev+2
   619   002394  C031  F06C         	movff	?_StandardDev+3,main@stdDev+3
   620   002398  C069  F01E         	movff	main@stdDev,calculateThreshold@stdDev
   621   00239C  C06A  F01F         	movff	main@stdDev+1,calculateThreshold@stdDev+1
   622   0023A0  C06B  F020         	movff	main@stdDev+2,calculateThreshold@stdDev+2
   623   0023A4  C06C  F021         	movff	main@stdDev+3,calculateThreshold@stdDev+3
   624   0023A8  ECFA  F013         	call	_calculateThreshold	;wreg free
   625   0023AC                     
   626                           ;main.c: 142:         if (average > 1500) {
   627   0023AC  0EDD               	movlw	221
   628   0023AE  0100               	movlb	0	; () banked
   629   0023B0  5D6F               	subwf	main@average& (0+255),w,b
   630   0023B2  0E05               	movlw	5
   631   0023B4  5970               	subwfb	(main@average+1)& (0+255),w,b
   632   0023B6  A0D8               	btfss	status,0,c
   633   0023B8  EFE0  F011         	goto	u3691
   634   0023BC  EFE2  F011         	goto	u3690
   635   0023C0                     u3691:
   636   0023C0  EFE6  F011         	goto	l3689
   637   0023C4                     u3690:
   638   0023C4                     
   639                           ; BSR set to: 0
   640                           ;main.c: 143:             scaled_value=20;
   641   0023C4  0E14               	movlw	20
   642   0023C6  6E4A               	movwf	_scaled_value^0,c	;volatile
   643                           
   644                           ;main.c: 145:         }
   645   0023C8  EFE8  F011         	goto	l3691
   646   0023CC                     l3689:
   647                           
   648                           ; BSR set to: 0
   649                           ;main.c: 147:             scaled_value=10;
   650   0023CC  0E0A               	movlw	10
   651   0023CE  6E4A               	movwf	_scaled_value^0,c	;volatile
   652   0023D0                     l3691:
   653                           
   654                           ; BSR set to: 0
   655                           ;main.c: 151:         EUSART1_Write(0x03);
   656   0023D0  0E03               	movlw	3
   657   0023D2  EC3F  F014         	call	_EUSART1_Write
   658   0023D6                     
   659                           ;main.c: 152:         EUSART1_Write((uint8_t)value);
   660   0023D6  0100               	movlb	0	; () banked
   661   0023D8  516D               	movf	main@value& (0+255),w,b
   662   0023DA  EC3F  F014         	call	_EUSART1_Write
   663   0023DE                     
   664                           ;main.c: 153:         EUSART1_Write((uint8_t)(value>>8));
   665   0023DE  0100               	movlb	0	; () banked
   666   0023E0  516E               	movf	(main@value+1)& (0+255),w,b
   667   0023E2  EC3F  F014         	call	_EUSART1_Write
   668   0023E6                     
   669                           ;main.c: 155:         EUSART1_Write((uint8_t)average);
   670   0023E6  0100               	movlb	0	; () banked
   671   0023E8  516F               	movf	main@average& (0+255),w,b
   672   0023EA  EC3F  F014         	call	_EUSART1_Write
   673   0023EE                     
   674                           ;main.c: 156:         EUSART1_Write((uint8_t)(average>>8));
   675   0023EE  0100               	movlb	0	; () banked
   676   0023F0  5170               	movf	(main@average+1)& (0+255),w,b
   677   0023F2  EC3F  F014         	call	_EUSART1_Write
   678   0023F6                     
   679                           ;main.c: 159:         EUSART1_Write(0xFC);
   680   0023F6  0EFC               	movlw	252
   681   0023F8  EC3F  F014         	call	_EUSART1_Write
   682   0023FC  EFAF  F011         	goto	l438
   683   002400  EF3A  F000         	goto	start
   684   002404                     __end_of_main:
   685                           	callstack 0
   686                           
   687 ;; *************** function _sampleSignal *****************
   688 ;; Defined at:
   689 ;;		line 62 in file "main.c"
   690 ;; Parameters:    Size  Location     Type
   691 ;;		None
   692 ;; Auto vars:     Size  Location     Type
   693 ;;  sample          2    9[COMRAM] unsigned short 
   694 ;; Return value:  Size  Location     Type
   695 ;;                  1    wreg      void 
   696 ;; Registers used:
   697 ;;		wreg, fsr2l, fsr2h, status,2, status,0, cstack
   698 ;; Tracked objects:
   699 ;;		On entry : 0/0
   700 ;;		On exit  : 0/0
   701 ;;		Unchanged: 0/0
   702 ;; Data sizes:     COMRAM   BANK0   BANK1   BANK2   BANK3   BANK4   BANK5   BANK6   BANK7   BANK8   BANK9  BANK10  BANK1
      +1  BANK12  BANK13  BANK14  BANK15
   703 ;;      Params:         0       0       0       0       0       0       0       0       0       0       0       0       
      +0       0       0       0       0
   704 ;;      Locals:         2       0       0       0       0       0       0       0       0       0       0       0       
      +0       0       0       0       0
   705 ;;      Temps:          0       0       0       0       0       0       0       0       0       0       0       0       
      +0       0       0       0       0
   706 ;;      Totals:         2       0       0       0       0       0       0       0       0       0       0       0       
      +0       0       0       0       0
   707 ;;Total ram usage:        2 bytes
   708 ;; Hardware stack levels used: 1
   709 ;; Hardware stack levels required when called: 4
   710 ;; This function calls:
   711 ;;		_ADC_GetConversion
   712 ;;		___lwmod
   713 ;; This function is called by:
   714 ;;		_main
   715 ;; This function uses a non-reentrant model
   716 ;;
   717                           
   718                           	psect	text1
   719   0025A6                     __ptext1:
   720                           	callstack 0
   721   0025A6                     _sampleSignal:
   722                           	callstack 26
   723   0025A6                     
   724                           ;main.c: 64:     uint16_t sample = ADC_GetConversion(channel_AN0);
   725   0025A6  0E00               	movlw	0
   726   0025A8  ECA3  F013         	call	_ADC_GetConversion
   727   0025AC  C005  F00A         	movff	?_ADC_GetConversion,sampleSignal@sample
   728   0025B0  C006  F00B         	movff	?_ADC_GetConversion+1,sampleSignal@sample+1
   729   0025B4                     
   730                           ;main.c: 65:     circularBuffer[bufferIndex] = sample;
   731   0025B4  90D8               	bcf	status,0,c
   732   0025B6  3454               	rlcf	_bufferIndex^0,w,c
   733   0025B8  6ED9               	movwf	fsr2l,c
   734   0025BA  3455               	rlcf	(_bufferIndex+1)^0,w,c
   735   0025BC  6EDA               	movwf	fsr2h,c
   736   0025BE  0E71               	movlw	low _circularBuffer
   737   0025C0  26D9               	addwf	fsr2l,f,c
   738   0025C2  0E00               	movlw	high _circularBuffer
   739   0025C4  22DA               	addwfc	fsr2h,f,c
   740   0025C6  C00A  FFDE         	movff	sampleSignal@sample,postinc2
   741   0025CA  C00B  FFDD         	movff	sampleSignal@sample+1,postdec2
   742   0025CE                     
   743                           ;main.c: 66:     bufferIndex = (bufferIndex+1)%1800;
   744   0025CE  0E01               	movlw	1
   745   0025D0  2454               	addwf	_bufferIndex^0,w,c
   746   0025D2  6E05               	movwf	___lwmod@dividend^0,c
   747   0025D4  0E00               	movlw	0
   748   0025D6  2055               	addwfc	(_bufferIndex+1)^0,w,c
   749   0025D8  6E06               	movwf	(___lwmod@dividend+1)^0,c
   750   0025DA  0E07               	movlw	7
   751   0025DC  6E08               	movwf	(___lwmod@divisor+1)^0,c
   752   0025DE  0E08               	movlw	8
   753   0025E0  6E07               	movwf	___lwmod@divisor^0,c
   754   0025E2  ECA1  F012         	call	___lwmod	;wreg free
   755   0025E6  C005  F054         	movff	?___lwmod,_bufferIndex
   756   0025EA  C006  F055         	movff	?___lwmod+1,_bufferIndex+1
   757   0025EE                     l3619:
   758   0025EE  5049               	movf	_flag_tmr0^0,w,c	;volatile
   759   0025F0  B4D8               	btfsc	status,2,c
   760   0025F2  EFFD  F012         	goto	u3651
   761   0025F6  EFFF  F012         	goto	u3650
   762   0025FA                     u3651:
   763   0025FA  EFF7  F012         	goto	l3619
   764   0025FE                     u3650:
   765   0025FE                     
   766                           ;main.c: 68:     flag_tmr0 = 0;
   767   0025FE  0E00               	movlw	0
   768   002600  6E49               	movwf	_flag_tmr0^0,c	;volatile
   769   002602  0012               	return		;funcret
   770   002604                     __end_of_sampleSignal:
   771                           	callstack 0
   772                           
   773 ;; *************** function _ADC_GetConversion *****************
   774 ;; Defined at:
   775 ;;		line 108 in file "mcc_generated_files/adc.c"
   776 ;; Parameters:    Size  Location     Type
   777 ;;  channel         1    wreg     enum E6498
   778 ;; Auto vars:     Size  Location     Type
   779 ;;  channel         1    8[COMRAM] enum E6498
   780 ;; Return value:  Size  Location     Type
   781 ;;                  2    4[COMRAM] unsigned short 
   782 ;; Registers used:
   783 ;;		wreg, status,2, status,0
   784 ;; Tracked objects:
   785 ;;		On entry : 0/0
   786 ;;		On exit  : 0/0
   787 ;;		Unchanged: 0/0
   788 ;; Data sizes:     COMRAM   BANK0   BANK1   BANK2   BANK3   BANK4   BANK5   BANK6   BANK7   BANK8   BANK9  BANK10  BANK1
      +1  BANK12  BANK13  BANK14  BANK15
   789 ;;      Params:         2       0       0       0       0       0       0       0       0       0       0       0       
      +0       0       0       0       0
   790 ;;      Locals:         1       0       0       0       0       0       0       0       0       0       0       0       
      +0       0       0       0       0
   791 ;;      Temps:          2       0       0       0       0       0       0       0       0       0       0       0       
      +0       0       0       0       0
   792 ;;      Totals:         5       0       0       0       0       0       0       0       0       0       0       0       
      +0       0       0       0       0
   793 ;;Total ram usage:        5 bytes
   794 ;; Hardware stack levels used: 1
   795 ;; Hardware stack levels required when called: 3
   796 ;; This function calls:
   797 ;;		Nothing
   798 ;; This function is called by:
   799 ;;		_sampleSignal
   800 ;;		_main
   801 ;; This function uses a non-reentrant model
   802 ;;
   803                           
   804                           	psect	text2
   805   002746                     __ptext2:
   806                           	callstack 0
   807   002746                     _ADC_GetConversion:
   808                           	callstack 26
   809                           
   810                           ;incstack = 0
   811                           ;ADC_GetConversion@channel stored from wreg
   812   002746  6E09               	movwf	ADC_GetConversion@channel^0,c
   813   002748                     
   814                           ;mcc_generated_files/adc.c: 108: adc_result_t ADC_GetConversion(adc_channel_t channel);m
      +                          cc_generated_files/adc.c: 109: {;mcc_generated_files/adc.c: 111:     ADCON0bits.CHS = ch
      +                          annel;
   815   002748  C009  F007         	movff	ADC_GetConversion@channel,??_ADC_GetConversion
   816   00274C  4607               	rlncf	??_ADC_GetConversion^0,f,c
   817   00274E  4607               	rlncf	??_ADC_GetConversion^0,f,c
   818   002750  50C2               	movf	194,w,c	;volatile
   819   002752  1807               	xorwf	??_ADC_GetConversion^0,w,c
   820   002754  0B83               	andlw	-125
   821   002756  1807               	xorwf	??_ADC_GetConversion^0,w,c
   822   002758  6EC2               	movwf	194,c	;volatile
   823   00275A                     
   824                           ;mcc_generated_files/adc.c: 114:     ADCON0bits.ADON = 1;
   825   00275A  80C2               	bsf	194,0,c	;volatile
   826   00275C                     
   827                           ;mcc_generated_files/adc.c: 118:     ADCON0bits.GO_nDONE = 1;
   828   00275C  82C2               	bsf	194,1,c	;volatile
   829   00275E                     l235:
   830                           
   831                           ;mcc_generated_files/adc.c: 121:     while (ADCON0bits.GO_nDONE)
   832   00275E  B2C2               	btfsc	194,1,c	;volatile
   833   002760  EFB4  F013         	goto	u2551
   834   002764  EFB6  F013         	goto	u2550
   835   002768                     u2551:
   836   002768  EFAF  F013         	goto	l235
   837   00276C                     u2550:
   838   00276C                     
   839                           ;mcc_generated_files/adc.c: 126:     return ((adc_result_t)((ADRESH << 8) + ADRESL));
   840   00276C  50C4               	movf	196,w,c	;volatile
   841   00276E  6E08               	movwf	(??_ADC_GetConversion+1)^0,c
   842   002770  6A07               	clrf	??_ADC_GetConversion^0,c
   843   002772  50C3               	movf	195,w,c	;volatile
   844   002774  2407               	addwf	??_ADC_GetConversion^0,w,c
   845   002776  6E05               	movwf	?_ADC_GetConversion^0,c
   846   002778  0E00               	movlw	0
   847   00277A  2008               	addwfc	(??_ADC_GetConversion+1)^0,w,c
   848   00277C  6E06               	movwf	(?_ADC_GetConversion+1)^0,c
   849   00277E  0012               	return		;funcret
   850   002780                     __end_of_ADC_GetConversion:
   851                           	callstack 0
   852                           
   853 ;; *************** function _calculateThreshold *****************
   854 ;; Defined at:
   855 ;;		line 92 in file "main.c"
   856 ;; Parameters:    Size  Location     Type
   857 ;;  stdDev          4   29[COMRAM] float 
   858 ;; Auto vars:     Size  Location     Type
   859 ;;  thresholdRat    4    0        float 
   860 ;;  threshold       2    0        unsigned short 
   861 ;; Return value:  Size  Location     Type
   862 ;;                  2   29[COMRAM] unsigned short 
   863 ;; Registers used:
   864 ;;		wreg, status,2, status,0, prodl, prodh, cstack
   865 ;; Tracked objects:
   866 ;;		On entry : 0/0
   867 ;;		On exit  : 0/0
   868 ;;		Unchanged: 0/0
   869 ;; Data sizes:     COMRAM   BANK0   BANK1   BANK2   BANK3   BANK4   BANK5   BANK6   BANK7   BANK8   BANK9  BANK10  BANK1
      +1  BANK12  BANK13  BANK14  BANK15
   870 ;;      Params:         4       0       0       0       0       0       0       0       0       0       0       0       
      +0       0       0       0       0
   871 ;;      Locals:         0       0       0       0       0       0       0       0       0       0       0       0       
      +0       0       0       0       0
   872 ;;      Temps:          0       0       0       0       0       0       0       0       0       0       0       0       
      +0       0       0       0       0
   873 ;;      Totals:         4       0       0       0       0       0       0       0       0       0       0       0       
      +0       0       0       0       0
   874 ;;Total ram usage:        4 bytes
   875 ;; Hardware stack levels used: 1
   876 ;; Hardware stack levels required when called: 4
   877 ;; This function calls:
   878 ;;		___flmul
   879 ;; This function is called by:
   880 ;;		_main
   881 ;; This function uses a non-reentrant model
   882 ;;
   883                           
   884                           	psect	text3
   885   0027F4                     __ptext3:
   886                           	callstack 0
   887   0027F4                     _calculateThreshold:
   888                           	callstack 26
   889   0027F4  C01E  F005         	movff	calculateThreshold@stdDev,___flmul@b
   890   0027F8  C01F  F006         	movff	calculateThreshold@stdDev+1,___flmul@b+1
   891   0027FC  C020  F007         	movff	calculateThreshold@stdDev+2,___flmul@b+2
   892   002800  C021  F008         	movff	calculateThreshold@stdDev+3,___flmul@b+3
   893   002804  0E00               	movlw	0
   894   002806  6E09               	movwf	___flmul@a^0,c
   895   002808  0E00               	movlw	0
   896   00280A  6E0A               	movwf	(___flmul@a+1)^0,c
   897   00280C  0E80               	movlw	128
   898   00280E  6E0B               	movwf	(___flmul@a+2)^0,c
   899   002810  0E3F               	movlw	63
   900   002812  6E0C               	movwf	(___flmul@a+3)^0,c
   901   002814  EC61  F00A         	call	___flmul	;wreg free
   902   002818                     
   903                           ;main.c: 95:     return (uint16_t)(threshold);
   904   002818  0E05               	movlw	5
   905   00281A  6E1F               	movwf	(?_calculateThreshold+1)^0,c
   906   00281C  0EDC               	movlw	220
   907   00281E  6E1E               	movwf	?_calculateThreshold^0,c
   908   002820  0012               	return		;funcret
   909   002822                     __end_of_calculateThreshold:
   910                           	callstack 0
   911                           
   912 ;; *************** function _StandardDev *****************
   913 ;; Defined at:
   914 ;;		line 80 in file "main.c"
   915 ;; Parameters:    Size  Location     Type
   916 ;;  average         2   45[COMRAM] unsigned short 
   917 ;; Auto vars:     Size  Location     Type
   918 ;;  razlika         4   53[COMRAM] float 
   919 ;;  i               1   61[COMRAM] unsigned char 
   920 ;;  variance        4   57[COMRAM] float 
   921 ;; Return value:  Size  Location     Type
   922 ;;                  4   45[COMRAM] float 
   923 ;; Registers used:
   924 ;;		wreg, fsr2l, fsr2h, status,2, status,0, prodl, prodh, cstack
   925 ;; Tracked objects:
   926 ;;		On entry : 0/0
   927 ;;		On exit  : 0/0
   928 ;;		Unchanged: 0/0
   929 ;; Data sizes:     COMRAM   BANK0   BANK1   BANK2   BANK3   BANK4   BANK5   BANK6   BANK7   BANK8   BANK9  BANK10  BANK1
      +1  BANK12  BANK13  BANK14  BANK15
   930 ;;      Params:         4       0       0       0       0       0       0       0       0       0       0       0       
      +0       0       0       0       0
   931 ;;      Locals:         9       0       0       0       0       0       0       0       0       0       0       0       
      +0       0       0       0       0
   932 ;;      Temps:          4       0       0       0       0       0       0       0       0       0       0       0       
      +0       0       0       0       0
   933 ;;      Totals:        17       0       0       0       0       0       0       0       0       0       0       0       
      +0       0       0       0       0
   934 ;;Total ram usage:       17 bytes
   935 ;; Hardware stack levels used: 1
   936 ;; Hardware stack levels required when called: 4
   937 ;; This function calls:
   938 ;;		___fladd
   939 ;;		___fldiv
   940 ;;		___flmul
   941 ;;		___lwmod
   942 ;;		___xxtofl
   943 ;;		_sqrtf
   944 ;; This function is called by:
   945 ;;		_main
   946 ;; This function uses a non-reentrant model
   947 ;;
   948                           
   949                           	psect	text4
   950   002216                     __ptext4:
   951                           	callstack 0
   952   002216                     _StandardDev:
   953                           	callstack 26
   954   002216                     
   955                           ;main.c: 81:     float variance = 0;
   956   002216  0E00               	movlw	0
   957   002218  6E3A               	movwf	StandardDev@variance^0,c
   958   00221A  0E00               	movlw	0
   959   00221C  6E3B               	movwf	(StandardDev@variance+1)^0,c
   960   00221E  0E00               	movlw	0
   961   002220  6E3C               	movwf	(StandardDev@variance+2)^0,c
   962   002222  0E00               	movlw	0
   963   002224  6E3D               	movwf	(StandardDev@variance+3)^0,c
   964                           
   965                           ;main.c: 83:     for(uint8_t i= 0; i<128; i++){
   966   002226  0E00               	movlw	0
   967   002228  6E3E               	movwf	StandardDev@i^0,c
   968   00222A                     l3645:
   969                           
   970                           ;main.c: 84:         float razlika = circularBuffer[(bufferIndex-i+1800)%1800]-average;
   971   00222A  0E07               	movlw	7
   972   00222C  6E08               	movwf	(___lwmod@divisor+1)^0,c
   973   00222E  0E08               	movlw	8
   974   002230  6E07               	movwf	___lwmod@divisor^0,c
   975   002232  503E               	movf	StandardDev@i^0,w,c
   976   002234  5C54               	subwf	_bufferIndex^0,w,c
   977   002236  6E32               	movwf	??_StandardDev^0,c
   978   002238  0E00               	movlw	0
   979   00223A  5855               	subwfb	(_bufferIndex+1)^0,w,c
   980   00223C  6E33               	movwf	(??_StandardDev+1)^0,c
   981   00223E  0E08               	movlw	8
   982   002240  2432               	addwf	??_StandardDev^0,w,c
   983   002242  6E05               	movwf	___lwmod@dividend^0,c
   984   002244  0E07               	movlw	7
   985   002246  2033               	addwfc	(??_StandardDev+1)^0,w,c
   986   002248  6E06               	movwf	(___lwmod@dividend+1)^0,c
   987   00224A  ECA1  F012         	call	___lwmod	;wreg free
   988   00224E  90D8               	bcf	status,0,c
   989   002250  3605               	rlcf	?___lwmod^0,f,c
   990   002252  3606               	rlcf	(?___lwmod+1)^0,f,c
   991   002254  0E71               	movlw	low _circularBuffer
   992   002256  2405               	addwf	?___lwmod^0,w,c
   993   002258  6ED9               	movwf	fsr2l,c
   994   00225A  0E00               	movlw	high _circularBuffer
   995   00225C  2006               	addwfc	(?___lwmod+1)^0,w,c
   996   00225E  6EDA               	movwf	fsr2h,c
   997   002260  CFDE F034          	movff	postinc2,??_StandardDev+2
   998   002264  CFDD F035          	movff	postdec2,??_StandardDev+3
   999   002268  502E               	movf	StandardDev@average^0,w,c
  1000   00226A  5E34               	subwf	(??_StandardDev+2)^0,f,c
  1001   00226C  502F               	movf	(StandardDev@average+1)^0,w,c
  1002   00226E  5A35               	subwfb	(??_StandardDev+3)^0,f,c
  1003   002270  C034  F00A         	movff	??_StandardDev+2,___xxtofl@val
  1004   002274  C035  F00B         	movff	??_StandardDev+3,___xxtofl@val+1
  1005   002278  6A0C               	clrf	(___xxtofl@val+2)^0,c
  1006   00227A  6A0D               	clrf	(___xxtofl@val+3)^0,c
  1007   00227C  0E00               	movlw	0
  1008   00227E  EC31  F010         	call	___xxtofl
  1009   002282  C00A  F036         	movff	?___xxtofl,StandardDev@razlika
  1010   002286  C00B  F037         	movff	?___xxtofl+1,StandardDev@razlika+1
  1011   00228A  C00C  F038         	movff	?___xxtofl+2,StandardDev@razlika+2
  1012   00228E  C00D  F039         	movff	?___xxtofl+3,StandardDev@razlika+3
  1013   002292                     
  1014                           ;main.c: 85:         variance += razlika*razlika;
  1015   002292  C03A  F01E         	movff	StandardDev@variance,___fladd@b
  1016   002296  C03B  F01F         	movff	StandardDev@variance+1,___fladd@b+1
  1017   00229A  C03C  F020         	movff	StandardDev@variance+2,___fladd@b+2
  1018   00229E  C03D  F021         	movff	StandardDev@variance+3,___fladd@b+3
  1019   0022A2  C036  F009         	movff	StandardDev@razlika,___flmul@a
  1020   0022A6  C037  F00A         	movff	StandardDev@razlika+1,___flmul@a+1
  1021   0022AA  C038  F00B         	movff	StandardDev@razlika+2,___flmul@a+2
  1022   0022AE  C039  F00C         	movff	StandardDev@razlika+3,___flmul@a+3
  1023   0022B2  C036  F005         	movff	StandardDev@razlika,___flmul@b
  1024   0022B6  C037  F006         	movff	StandardDev@razlika+1,___flmul@b+1
  1025   0022BA  C038  F007         	movff	StandardDev@razlika+2,___flmul@b+2
  1026   0022BE  C039  F008         	movff	StandardDev@razlika+3,___flmul@b+3
  1027   0022C2  EC61  F00A         	call	___flmul	;wreg free
  1028   0022C6  C005  F022         	movff	?___flmul,___fladd@a
  1029   0022CA  C006  F023         	movff	?___flmul+1,___fladd@a+1
  1030   0022CE  C007  F024         	movff	?___flmul+2,___fladd@a+2
  1031   0022D2  C008  F025         	movff	?___flmul+3,___fladd@a+3
  1032   0022D6  EC01  F008         	call	___fladd	;wreg free
  1033   0022DA  C01E  F03A         	movff	?___fladd,StandardDev@variance
  1034   0022DE  C01F  F03B         	movff	?___fladd+1,StandardDev@variance+1
  1035   0022E2  C020  F03C         	movff	?___fladd+2,StandardDev@variance+2
  1036   0022E6  C021  F03D         	movff	?___fladd+3,StandardDev@variance+3
  1037   0022EA                     
  1038                           ;main.c: 87:     }
  1039   0022EA  2A3E               	incf	StandardDev@i^0,f,c
  1040   0022EC  0E7F               	movlw	127
  1041   0022EE  643E               	cpfsgt	StandardDev@i^0,c
  1042   0022F0  EF7C  F011         	goto	u3681
  1043   0022F4  EF7E  F011         	goto	u3680
  1044   0022F8                     u3681:
  1045   0022F8  EF15  F011         	goto	l3645
  1046   0022FC                     u3680:
  1047   0022FC                     
  1048                           ;main.c: 88:     variance /= 128;
  1049   0022FC  C03A  F005         	movff	StandardDev@variance,___fldiv@b
  1050   002300  C03B  F006         	movff	StandardDev@variance+1,___fldiv@b+1
  1051   002304  C03C  F007         	movff	StandardDev@variance+2,___fldiv@b+2
  1052   002308  C03D  F008         	movff	StandardDev@variance+3,___fldiv@b+3
  1053   00230C  0E00               	movlw	0
  1054   00230E  6E09               	movwf	___fldiv@a^0,c
  1055   002310  0E00               	movlw	0
  1056   002312  6E0A               	movwf	(___fldiv@a+1)^0,c
  1057   002314  0E00               	movlw	0
  1058   002316  6E0B               	movwf	(___fldiv@a+2)^0,c
  1059   002318  0E43               	movlw	67
  1060   00231A  6E0C               	movwf	(___fldiv@a+3)^0,c
  1061   00231C  EC64  F00E         	call	___fldiv	;wreg free
  1062   002320  C005  F03A         	movff	?___fldiv,StandardDev@variance
  1063   002324  C006  F03B         	movff	?___fldiv+1,StandardDev@variance+1
  1064   002328  C007  F03C         	movff	?___fldiv+2,StandardDev@variance+2
  1065   00232C  C008  F03D         	movff	?___fldiv+3,StandardDev@variance+3
  1066                           
  1067                           ;main.c: 89:     return sqrtf(variance);
  1068   002330  C03A  F005         	movff	StandardDev@variance,sqrtf@x
  1069   002334  C03B  F006         	movff	StandardDev@variance+1,sqrtf@x+1
  1070   002338  C03C  F007         	movff	StandardDev@variance+2,sqrtf@x+2
  1071   00233C  C03D  F008         	movff	StandardDev@variance+3,sqrtf@x+3
  1072   002340  EC76  F00C         	call	_sqrtf	;wreg free
  1073   002344  C005  F02E         	movff	?_sqrtf,?_StandardDev
  1074   002348  C006  F02F         	movff	?_sqrtf+1,?_StandardDev+1
  1075   00234C  C007  F030         	movff	?_sqrtf+2,?_StandardDev+2
  1076   002350  C008  F031         	movff	?_sqrtf+3,?_StandardDev+3
  1077   002354  0012               	return		;funcret
  1078   002356                     __end_of_StandardDev:
  1079                           	callstack 0
  1080                           
  1081 ;; *************** function _sqrtf *****************
  1082 ;; Defined at:
  1083 ;;		line 24 in file "C:\Program Files\Microchip\xc8\v2.45\pic\sources\c99\common\sqrtf.c"
  1084 ;; Parameters:    Size  Location     Type
  1085 ;;  x               4    4[COMRAM] float 
  1086 ;; Auto vars:     Size  Location     Type
  1087 ;;  ix              4   37[COMRAM] struct .
  1088 ;;  r               4   33[COMRAM] unsigned long 
  1089 ;;  m               4   29[COMRAM] long 
  1090 ;;  t               4   25[COMRAM] long 
  1091 ;;  q               4   21[COMRAM] long 
  1092 ;;  i               4   17[COMRAM] long 
  1093 ;;  s               4   13[COMRAM] long 
  1094 ;;  z               4    0        float 
  1095 ;; Return value:  Size  Location     Type
  1096 ;;                  4    4[COMRAM] float 
  1097 ;; Registers used:
  1098 ;;		wreg, status,2, status,0
  1099 ;; Tracked objects:
  1100 ;;		On entry : 0/0
  1101 ;;		On exit  : 0/0
  1102 ;;		Unchanged: 0/0
  1103 ;; Data sizes:     COMRAM   BANK0   BANK1   BANK2   BANK3   BANK4   BANK5   BANK6   BANK7   BANK8   BANK9  BANK10  BANK1
      +1  BANK12  BANK13  BANK14  BANK15
  1104 ;;      Params:         4       0       0       0       0       0       0       0       0       0       0       0       
      +0       0       0       0       0
  1105 ;;      Locals:        28       0       0       0       0       0       0       0       0       0       0       0       
      +0       0       0       0       0
  1106 ;;      Temps:          5       0       0       0       0       0       0       0       0       0       0       0       
      +0       0       0       0       0
  1107 ;;      Totals:        37       0       0       0       0       0       0       0       0       0       0       0       
      +0       0       0       0       0
  1108 ;;Total ram usage:       37 bytes
  1109 ;; Hardware stack levels used: 1
  1110 ;; Hardware stack levels required when called: 3
  1111 ;; This function calls:
  1112 ;;		Nothing
  1113 ;; This function is called by:
  1114 ;;		_StandardDev
  1115 ;; This function uses a non-reentrant model
  1116 ;;
  1117                           
  1118                           	psect	text5
  1119   0018EC                     __ptext5:
  1120                           	callstack 0
  1121   0018EC                     _sqrtf:
  1122                           	callstack 26
  1123   0018EC  C005  F026         	movff	sqrtf@x,sqrtf@ix
  1124   0018F0  C006  F027         	movff	sqrtf@x+1,sqrtf@ix+1
  1125   0018F4  C007  F028         	movff	sqrtf@x+2,sqrtf@ix+2
  1126   0018F8  C008  F029         	movff	sqrtf@x+3,sqrtf@ix+3
  1127   0018FC  0E00               	movlw	0
  1128   0018FE  1426               	andwf	sqrtf@ix^0,w,c
  1129   001900  6E09               	movwf	??_sqrtf^0,c
  1130   001902  0E00               	movlw	0
  1131   001904  1427               	andwf	(sqrtf@ix+1)^0,w,c
  1132   001906  6E0A               	movwf	(??_sqrtf+1)^0,c
  1133   001908  0E80               	movlw	128
  1134   00190A  1428               	andwf	(sqrtf@ix+2)^0,w,c
  1135   00190C  6E0B               	movwf	(??_sqrtf+2)^0,c
  1136   00190E  0E7F               	movlw	127
  1137   001910  1429               	andwf	(sqrtf@ix+3)^0,w,c
  1138   001912  6E0C               	movwf	(??_sqrtf+3)^0,c
  1139   001914  0E80               	movlw	128
  1140   001916  180B               	xorwf	(??_sqrtf+2)^0,w,c
  1141   001918  E109               	bnz	u2561
  1142   00191A  0E7F               	movlw	127
  1143   00191C  180C               	xorwf	(??_sqrtf+3)^0,w,c
  1144   00191E  1009               	iorwf	??_sqrtf^0,w,c
  1145   001920  100A               	iorwf	(??_sqrtf+1)^0,w,c
  1146   001922  A4D8               	btfss	status,2,c
  1147   001924  EF96  F00C         	goto	u2561
  1148   001928  EF98  F00C         	goto	u2560
  1149   00192C                     u2561:
  1150   00192C  EFC8  F00C         	goto	l3011
  1151   001930                     u2560:
  1152   001930  0EFF               	movlw	255
  1153   001932  1426               	andwf	sqrtf@ix^0,w,c
  1154   001934  6E09               	movwf	??_sqrtf^0,c
  1155   001936  0EFF               	movlw	255
  1156   001938  1427               	andwf	(sqrtf@ix+1)^0,w,c
  1157   00193A  6E0A               	movwf	(??_sqrtf+1)^0,c
  1158   00193C  0E7F               	movlw	127
  1159   00193E  1428               	andwf	(sqrtf@ix+2)^0,w,c
  1160   001940  6E0B               	movwf	(??_sqrtf+2)^0,c
  1161   001942  0E00               	movlw	0
  1162   001944  1429               	andwf	(sqrtf@ix+3)^0,w,c
  1163   001946  6E0C               	movwf	(??_sqrtf+3)^0,c
  1164   001948  5009               	movf	??_sqrtf^0,w,c
  1165   00194A  100A               	iorwf	(??_sqrtf+1)^0,w,c
  1166   00194C  100B               	iorwf	(??_sqrtf+2)^0,w,c
  1167   00194E  100C               	iorwf	(??_sqrtf+3)^0,w,c
  1168   001950  A4D8               	btfss	status,2,c
  1169   001952  EFAD  F00C         	goto	u2571
  1170   001956  EFAF  F00C         	goto	u2570
  1171   00195A                     u2571:
  1172   00195A  EFB6  F00C         	goto	l3005
  1173   00195E                     u2570:
  1174   00195E  BE29               	btfsc	(sqrtf@ix+3)^0,7,c
  1175   001960  EFB6  F00C         	goto	u2580
  1176   001964  EFB4  F00C         	goto	u2581
  1177   001968                     u2581:
  1178   001968  EFBE  F00C         	goto	l3007
  1179   00196C                     u2580:
  1180   00196C                     l3005:
  1181   00196C  0EFF               	movlw	255
  1182   00196E  1226               	iorwf	sqrtf@ix^0,f,c
  1183   001970  0EFF               	movlw	255
  1184   001972  1227               	iorwf	(sqrtf@ix+1)^0,f,c
  1185   001974  0E7F               	movlw	127
  1186   001976  1228               	iorwf	(sqrtf@ix+2)^0,f,c
  1187   001978  0E00               	movlw	0
  1188   00197A  1229               	iorwf	(sqrtf@ix+3)^0,f,c
  1189   00197C                     l3007:
  1190   00197C  C026  F005         	movff	sqrtf@ix,?_sqrtf
  1191   001980  C027  F006         	movff	sqrtf@ix+1,?_sqrtf+1
  1192   001984  C028  F007         	movff	sqrtf@ix+2,?_sqrtf+2
  1193   001988  C029  F008         	movff	sqrtf@ix+3,?_sqrtf+3
  1194   00198C  EF63  F00E         	goto	l1126
  1195   001990                     l3011:
  1196   001990  BE29               	btfsc	(sqrtf@ix+3)^0,7,c
  1197   001992  EFD7  F00C         	goto	u2590
  1198   001996  5029               	movf	(sqrtf@ix+3)^0,w,c
  1199   001998  1028               	iorwf	(sqrtf@ix+2)^0,w,c
  1200   00199A  1027               	iorwf	(sqrtf@ix+1)^0,w,c
  1201   00199C  E106               	bnz	u2591
  1202   00199E  0426               	decf	sqrtf@ix^0,w,c
  1203   0019A0  B0D8               	btfsc	status,0,c
  1204   0019A2  EFD5  F00C         	goto	u2591
  1205   0019A6  EFD7  F00C         	goto	u2590
  1206   0019AA                     u2591:
  1207   0019AA  EF0D  F00D         	goto	l3027
  1208   0019AE                     u2590:
  1209   0019AE  0EFF               	movlw	255
  1210   0019B0  1426               	andwf	sqrtf@ix^0,w,c
  1211   0019B2  6E09               	movwf	??_sqrtf^0,c
  1212   0019B4  0EFF               	movlw	255
  1213   0019B6  1427               	andwf	(sqrtf@ix+1)^0,w,c
  1214   0019B8  6E0A               	movwf	(??_sqrtf+1)^0,c
  1215   0019BA  0EFF               	movlw	255
  1216   0019BC  1428               	andwf	(sqrtf@ix+2)^0,w,c
  1217   0019BE  6E0B               	movwf	(??_sqrtf+2)^0,c
  1218   0019C0  0E7F               	movlw	127
  1219   0019C2  1429               	andwf	(sqrtf@ix+3)^0,w,c
  1220   0019C4  6E0C               	movwf	(??_sqrtf+3)^0,c
  1221   0019C6  5009               	movf	??_sqrtf^0,w,c
  1222   0019C8  100A               	iorwf	(??_sqrtf+1)^0,w,c
  1223   0019CA  100B               	iorwf	(??_sqrtf+2)^0,w,c
  1224   0019CC  100C               	iorwf	(??_sqrtf+3)^0,w,c
  1225   0019CE  A4D8               	btfss	status,2,c
  1226   0019D0  EFEC  F00C         	goto	u2601
  1227   0019D4  EFEE  F00C         	goto	u2600
  1228   0019D8                     u2601:
  1229   0019D8  EFF8  F00C         	goto	l3019
  1230   0019DC                     u2600:
  1231   0019DC  0E00               	movlw	0
  1232   0019DE  6E05               	movwf	?_sqrtf^0,c
  1233   0019E0  0E00               	movlw	0
  1234   0019E2  6E06               	movwf	(?_sqrtf+1)^0,c
  1235   0019E4  0E00               	movlw	0
  1236   0019E6  6E07               	movwf	(?_sqrtf+2)^0,c
  1237   0019E8  0E00               	movlw	0
  1238   0019EA  6E08               	movwf	(?_sqrtf+3)^0,c
  1239   0019EC  EF63  F00E         	goto	l1126
  1240   0019F0                     l3019:
  1241   0019F0  BE29               	btfsc	(sqrtf@ix+3)^0,7,c
  1242   0019F2  EFFF  F00C         	goto	u2610
  1243   0019F6  EFFD  F00C         	goto	u2611
  1244   0019FA                     u2611:
  1245   0019FA  EF0D  F00D         	goto	l3027
  1246   0019FE                     u2610:
  1247   0019FE  0E00               	movlw	0
  1248   001A00  6E43               	movwf	(_errno+1)^0,c
  1249   001A02  0E21               	movlw	33
  1250   001A04  6E42               	movwf	_errno^0,c
  1251   001A06  0EFF               	movlw	255
  1252   001A08  6E26               	movwf	sqrtf@ix^0,c
  1253   001A0A  0EFF               	movlw	255
  1254   001A0C  6E27               	movwf	(sqrtf@ix+1)^0,c
  1255   001A0E  0EFF               	movlw	255
  1256   001A10  6E28               	movwf	(sqrtf@ix+2)^0,c
  1257   001A12  0E7F               	movlw	127
  1258   001A14  6E29               	movwf	(sqrtf@ix+3)^0,c
  1259   001A16  EFBE  F00C         	goto	l3007
  1260   001A1A                     l3027:
  1261   001A1A  0E17               	movlw	23
  1262   001A1C  6E09               	movwf	??_sqrtf^0,c
  1263   001A1E  C026  F00A         	movff	sqrtf@ix,??_sqrtf+1
  1264   001A22  C027  F00B         	movff	sqrtf@ix+1,??_sqrtf+2
  1265   001A26  C028  F00C         	movff	sqrtf@ix+2,??_sqrtf+3
  1266   001A2A  C029  F00D         	movff	sqrtf@ix+3,??_sqrtf+4
  1267   001A2E                     u2625:
  1268   001A2E  6609               	tstfsz	??_sqrtf^0,c
  1269   001A30  EF1C  F00D         	goto	u2626
  1270   001A34  EF24  F00D         	goto	u2627
  1271   001A38                     u2626:
  1272   001A38  340D               	rlcf	(??_sqrtf+4)^0,w,c
  1273   001A3A  320D               	rrcf	(??_sqrtf+4)^0,f,c
  1274   001A3C  320C               	rrcf	(??_sqrtf+3)^0,f,c
  1275   001A3E  320B               	rrcf	(??_sqrtf+2)^0,f,c
  1276   001A40  320A               	rrcf	(??_sqrtf+1)^0,f,c
  1277   001A42  2E09               	decfsz	??_sqrtf^0,f,c
  1278   001A44  EF17  F00D         	goto	u2625
  1279   001A48                     u2627:
  1280   001A48  C00A  F01E         	movff	??_sqrtf+1,sqrtf@m
  1281   001A4C  C00B  F01F         	movff	??_sqrtf+2,sqrtf@m+1
  1282   001A50  C00C  F020         	movff	??_sqrtf+3,sqrtf@m+2
  1283   001A54  C00D  F021         	movff	??_sqrtf+4,sqrtf@m+3
  1284   001A58  501E               	movf	sqrtf@m^0,w,c
  1285   001A5A  101F               	iorwf	(sqrtf@m+1)^0,w,c
  1286   001A5C  1020               	iorwf	(sqrtf@m+2)^0,w,c
  1287   001A5E  1021               	iorwf	(sqrtf@m+3)^0,w,c
  1288   001A60  A4D8               	btfss	status,2,c
  1289   001A62  EF35  F00D         	goto	u2631
  1290   001A66  EF37  F00D         	goto	u2630
  1291   001A6A                     u2631:
  1292   001A6A  EF67  F00D         	goto	l1130
  1293   001A6E                     u2630:
  1294   001A6E  0E00               	movlw	0
  1295   001A70  6E12               	movwf	sqrtf@i^0,c
  1296   001A72  0E00               	movlw	0
  1297   001A74  6E13               	movwf	(sqrtf@i+1)^0,c
  1298   001A76  0E00               	movlw	0
  1299   001A78  6E14               	movwf	(sqrtf@i+2)^0,c
  1300   001A7A  0E00               	movlw	0
  1301   001A7C  6E15               	movwf	(sqrtf@i+3)^0,c
  1302   001A7E  EF4C  F00D         	goto	l3035
  1303   001A82                     l3031:
  1304   001A82  90D8               	bcf	status,0,c
  1305   001A84  3626               	rlcf	sqrtf@ix^0,f,c
  1306   001A86  3627               	rlcf	(sqrtf@ix+1)^0,f,c
  1307   001A88  3628               	rlcf	(sqrtf@ix+2)^0,f,c
  1308   001A8A  3629               	rlcf	(sqrtf@ix+3)^0,f,c
  1309   001A8C  0E01               	movlw	1
  1310   001A8E  2612               	addwf	sqrtf@i^0,f,c
  1311   001A90  0E00               	movlw	0
  1312   001A92  2213               	addwfc	(sqrtf@i+1)^0,f,c
  1313   001A94  2214               	addwfc	(sqrtf@i+2)^0,f,c
  1314   001A96  2215               	addwfc	(sqrtf@i+3)^0,f,c
  1315   001A98                     l3035:
  1316   001A98  AE28               	btfss	(sqrtf@ix+2)^0,7,c
  1317   001A9A  EF51  F00D         	goto	u2641
  1318   001A9E  EF53  F00D         	goto	u2640
  1319   001AA2                     u2641:
  1320   001AA2  EF41  F00D         	goto	l3031
  1321   001AA6                     u2640:
  1322   001AA6  0EFF               	movlw	255
  1323   001AA8  2412               	addwf	sqrtf@i^0,w,c
  1324   001AAA  6E09               	movwf	??_sqrtf^0,c
  1325   001AAC  0EFF               	movlw	255
  1326   001AAE  2013               	addwfc	(sqrtf@i+1)^0,w,c
  1327   001AB0  6E0A               	movwf	(??_sqrtf+1)^0,c
  1328   001AB2  0EFF               	movlw	255
  1329   001AB4  2014               	addwfc	(sqrtf@i+2)^0,w,c
  1330   001AB6  6E0B               	movwf	(??_sqrtf+2)^0,c
  1331   001AB8  0EFF               	movlw	255
  1332   001ABA  2015               	addwfc	(sqrtf@i+3)^0,w,c
  1333   001ABC  6E0C               	movwf	(??_sqrtf+3)^0,c
  1334   001ABE  5009               	movf	??_sqrtf^0,w,c
  1335   001AC0  5E1E               	subwf	sqrtf@m^0,f,c
  1336   001AC2  500A               	movf	(??_sqrtf+1)^0,w,c
  1337   001AC4  5A1F               	subwfb	(sqrtf@m+1)^0,f,c
  1338   001AC6  500B               	movf	(??_sqrtf+2)^0,w,c
  1339   001AC8  5A20               	subwfb	(sqrtf@m+2)^0,f,c
  1340   001ACA  500C               	movf	(??_sqrtf+3)^0,w,c
  1341   001ACC  5A21               	subwfb	(sqrtf@m+3)^0,f,c
  1342   001ACE                     l1130:
  1343   001ACE  0E81               	movlw	129
  1344   001AD0  261E               	addwf	sqrtf@m^0,f,c
  1345   001AD2  0EFF               	movlw	255
  1346   001AD4  221F               	addwfc	(sqrtf@m+1)^0,f,c
  1347   001AD6  0EFF               	movlw	255
  1348   001AD8  2220               	addwfc	(sqrtf@m+2)^0,f,c
  1349   001ADA  0EFF               	movlw	255
  1350   001ADC  2221               	addwfc	(sqrtf@m+3)^0,f,c
  1351   001ADE  0EFF               	movlw	255
  1352   001AE0  1426               	andwf	sqrtf@ix^0,w,c
  1353   001AE2  6E09               	movwf	??_sqrtf^0,c
  1354   001AE4  0EFF               	movlw	255
  1355   001AE6  1427               	andwf	(sqrtf@ix+1)^0,w,c
  1356   001AE8  6E0A               	movwf	(??_sqrtf+1)^0,c
  1357   001AEA  0E7F               	movlw	127
  1358   001AEC  1428               	andwf	(sqrtf@ix+2)^0,w,c
  1359   001AEE  6E0B               	movwf	(??_sqrtf+2)^0,c
  1360   001AF0  0E00               	movlw	0
  1361   001AF2  1429               	andwf	(sqrtf@ix+3)^0,w,c
  1362   001AF4  6E0C               	movwf	(??_sqrtf+3)^0,c
  1363   001AF6  0E00               	movlw	0
  1364   001AF8  1009               	iorwf	??_sqrtf^0,w,c
  1365   001AFA  6E26               	movwf	sqrtf@ix^0,c
  1366   001AFC  0E00               	movlw	0
  1367   001AFE  100A               	iorwf	(??_sqrtf+1)^0,w,c
  1368   001B00  6E27               	movwf	(sqrtf@ix+1)^0,c
  1369   001B02  0E80               	movlw	128
  1370   001B04  100B               	iorwf	(??_sqrtf+2)^0,w,c
  1371   001B06  6E28               	movwf	(sqrtf@ix+2)^0,c
  1372   001B08  0E00               	movlw	0
  1373   001B0A  100C               	iorwf	(??_sqrtf+3)^0,w,c
  1374   001B0C  6E29               	movwf	(sqrtf@ix+3)^0,c
  1375   001B0E  A01E               	btfss	sqrtf@m^0,0,c
  1376   001B10  EF8C  F00D         	goto	u2651
  1377   001B14  EF8E  F00D         	goto	u2650
  1378   001B18                     u2651:
  1379   001B18  EF96  F00D         	goto	l1134
  1380   001B1C                     u2650:
  1381   001B1C  5026               	movf	sqrtf@ix^0,w,c
  1382   001B1E  2626               	addwf	sqrtf@ix^0,f,c
  1383   001B20  5027               	movf	(sqrtf@ix+1)^0,w,c
  1384   001B22  2227               	addwfc	(sqrtf@ix+1)^0,f,c
  1385   001B24  5028               	movf	(sqrtf@ix+2)^0,w,c
  1386   001B26  2228               	addwfc	(sqrtf@ix+2)^0,f,c
  1387   001B28  5029               	movf	(sqrtf@ix+3)^0,w,c
  1388   001B2A  2229               	addwfc	(sqrtf@ix+3)^0,f,c
  1389   001B2C                     l1134:
  1390   001B2C  3421               	rlcf	(sqrtf@m+3)^0,w,c
  1391   001B2E  3221               	rrcf	(sqrtf@m+3)^0,f,c
  1392   001B30  3220               	rrcf	(sqrtf@m+2)^0,f,c
  1393   001B32  321F               	rrcf	(sqrtf@m+1)^0,f,c
  1394   001B34  321E               	rrcf	sqrtf@m^0,f,c
  1395   001B36  5026               	movf	sqrtf@ix^0,w,c
  1396   001B38  2626               	addwf	sqrtf@ix^0,f,c
  1397   001B3A  5027               	movf	(sqrtf@ix+1)^0,w,c
  1398   001B3C  2227               	addwfc	(sqrtf@ix+1)^0,f,c
  1399   001B3E  5028               	movf	(sqrtf@ix+2)^0,w,c
  1400   001B40  2228               	addwfc	(sqrtf@ix+2)^0,f,c
  1401   001B42  5029               	movf	(sqrtf@ix+3)^0,w,c
  1402   001B44  2229               	addwfc	(sqrtf@ix+3)^0,f,c
  1403   001B46  0E00               	movlw	0
  1404   001B48  6E0E               	movwf	sqrtf@s^0,c
  1405   001B4A  0E00               	movlw	0
  1406   001B4C  6E0F               	movwf	(sqrtf@s+1)^0,c
  1407   001B4E  0E00               	movlw	0
  1408   001B50  6E10               	movwf	(sqrtf@s+2)^0,c
  1409   001B52  0E00               	movlw	0
  1410   001B54  6E11               	movwf	(sqrtf@s+3)^0,c
  1411   001B56  C00E  F016         	movff	sqrtf@s,sqrtf@q
  1412   001B5A  C00F  F017         	movff	sqrtf@s+1,sqrtf@q+1
  1413   001B5E  C010  F018         	movff	sqrtf@s+2,sqrtf@q+2
  1414   001B62  C011  F019         	movff	sqrtf@s+3,sqrtf@q+3
  1415   001B66  0E00               	movlw	0
  1416   001B68  6E22               	movwf	sqrtf@r^0,c
  1417   001B6A  0E00               	movlw	0
  1418   001B6C  6E23               	movwf	(sqrtf@r+1)^0,c
  1419   001B6E  0E00               	movlw	0
  1420   001B70  6E24               	movwf	(sqrtf@r+2)^0,c
  1421   001B72  0E01               	movlw	1
  1422   001B74  6E25               	movwf	(sqrtf@r+3)^0,c
  1423   001B76  EF05  F00E         	goto	l3053
  1424   001B7A                     l3047:
  1425   001B7A  500E               	movf	sqrtf@s^0,w,c
  1426   001B7C  2422               	addwf	sqrtf@r^0,w,c
  1427   001B7E  6E1A               	movwf	sqrtf@t^0,c
  1428   001B80  500F               	movf	(sqrtf@s+1)^0,w,c
  1429   001B82  2023               	addwfc	(sqrtf@r+1)^0,w,c
  1430   001B84  6E1B               	movwf	(sqrtf@t+1)^0,c
  1431   001B86  5010               	movf	(sqrtf@s+2)^0,w,c
  1432   001B88  2024               	addwfc	(sqrtf@r+2)^0,w,c
  1433   001B8A  6E1C               	movwf	(sqrtf@t+2)^0,c
  1434   001B8C  5011               	movf	(sqrtf@s+3)^0,w,c
  1435   001B8E  2025               	addwfc	(sqrtf@r+3)^0,w,c
  1436   001B90  6E1D               	movwf	(sqrtf@t+3)^0,c
  1437   001B92  501A               	movf	sqrtf@t^0,w,c
  1438   001B94  5C26               	subwf	sqrtf@ix^0,w,c
  1439   001B96  501B               	movf	(sqrtf@t+1)^0,w,c
  1440   001B98  5827               	subwfb	(sqrtf@ix+1)^0,w,c
  1441   001B9A  501C               	movf	(sqrtf@t+2)^0,w,c
  1442   001B9C  5828               	subwfb	(sqrtf@ix+2)^0,w,c
  1443   001B9E  5029               	movf	(sqrtf@ix+3)^0,w,c
  1444   001BA0  0A80               	xorlw	128
  1445   001BA2  6E09               	movwf	??_sqrtf^0,c
  1446   001BA4  501D               	movf	(sqrtf@t+3)^0,w,c
  1447   001BA6  0A80               	xorlw	128
  1448   001BA8  5809               	subwfb	??_sqrtf^0,w,c
  1449   001BAA  A0D8               	btfss	status,0,c
  1450   001BAC  EFDA  F00D         	goto	u2661
  1451   001BB0  EFDC  F00D         	goto	u2660
  1452   001BB4                     u2661:
  1453   001BB4  EFF8  F00D         	goto	l1137
  1454   001BB8                     u2660:
  1455   001BB8  501A               	movf	sqrtf@t^0,w,c
  1456   001BBA  2422               	addwf	sqrtf@r^0,w,c
  1457   001BBC  6E0E               	movwf	sqrtf@s^0,c
  1458   001BBE  501B               	movf	(sqrtf@t+1)^0,w,c
  1459   001BC0  2023               	addwfc	(sqrtf@r+1)^0,w,c
  1460   001BC2  6E0F               	movwf	(sqrtf@s+1)^0,c
  1461   001BC4  501C               	movf	(sqrtf@t+2)^0,w,c
  1462   001BC6  2024               	addwfc	(sqrtf@r+2)^0,w,c
  1463   001BC8  6E10               	movwf	(sqrtf@s+2)^0,c
  1464   001BCA  501D               	movf	(sqrtf@t+3)^0,w,c
  1465   001BCC  2025               	addwfc	(sqrtf@r+3)^0,w,c
  1466   001BCE  6E11               	movwf	(sqrtf@s+3)^0,c
  1467   001BD0  501A               	movf	sqrtf@t^0,w,c
  1468   001BD2  5E26               	subwf	sqrtf@ix^0,f,c
  1469   001BD4  501B               	movf	(sqrtf@t+1)^0,w,c
  1470   001BD6  5A27               	subwfb	(sqrtf@ix+1)^0,f,c
  1471   001BD8  501C               	movf	(sqrtf@t+2)^0,w,c
  1472   001BDA  5A28               	subwfb	(sqrtf@ix+2)^0,f,c
  1473   001BDC  501D               	movf	(sqrtf@t+3)^0,w,c
  1474   001BDE  5A29               	subwfb	(sqrtf@ix+3)^0,f,c
  1475   001BE0  5022               	movf	sqrtf@r^0,w,c
  1476   001BE2  2616               	addwf	sqrtf@q^0,f,c
  1477   001BE4  5023               	movf	(sqrtf@r+1)^0,w,c
  1478   001BE6  2217               	addwfc	(sqrtf@q+1)^0,f,c
  1479   001BE8  5024               	movf	(sqrtf@r+2)^0,w,c
  1480   001BEA  2218               	addwfc	(sqrtf@q+2)^0,f,c
  1481   001BEC  5025               	movf	(sqrtf@r+3)^0,w,c
  1482   001BEE  2219               	addwfc	(sqrtf@q+3)^0,f,c
  1483   001BF0                     l1137:
  1484   001BF0  5026               	movf	sqrtf@ix^0,w,c
  1485   001BF2  2626               	addwf	sqrtf@ix^0,f,c
  1486   001BF4  5027               	movf	(sqrtf@ix+1)^0,w,c
  1487   001BF6  2227               	addwfc	(sqrtf@ix+1)^0,f,c
  1488   001BF8  5028               	movf	(sqrtf@ix+2)^0,w,c
  1489   001BFA  2228               	addwfc	(sqrtf@ix+2)^0,f,c
  1490   001BFC  5029               	movf	(sqrtf@ix+3)^0,w,c
  1491   001BFE  2229               	addwfc	(sqrtf@ix+3)^0,f,c
  1492   001C00  90D8               	bcf	status,0,c
  1493   001C02  3225               	rrcf	(sqrtf@r+3)^0,f,c
  1494   001C04  3224               	rrcf	(sqrtf@r+2)^0,f,c
  1495   001C06  3223               	rrcf	(sqrtf@r+1)^0,f,c
  1496   001C08  3222               	rrcf	sqrtf@r^0,f,c
  1497   001C0A                     l3053:
  1498   001C0A  5022               	movf	sqrtf@r^0,w,c
  1499   001C0C  1023               	iorwf	(sqrtf@r+1)^0,w,c
  1500   001C0E  1024               	iorwf	(sqrtf@r+2)^0,w,c
  1501   001C10  1025               	iorwf	(sqrtf@r+3)^0,w,c
  1502   001C12  A4D8               	btfss	status,2,c
  1503   001C14  EF0E  F00E         	goto	u2671
  1504   001C18  EF10  F00E         	goto	u2670
  1505   001C1C                     u2671:
  1506   001C1C  EFBD  F00D         	goto	l3047
  1507   001C20                     u2670:
  1508   001C20  5026               	movf	sqrtf@ix^0,w,c
  1509   001C22  1027               	iorwf	(sqrtf@ix+1)^0,w,c
  1510   001C24  1028               	iorwf	(sqrtf@ix+2)^0,w,c
  1511   001C26  1029               	iorwf	(sqrtf@ix+3)^0,w,c
  1512   001C28  B4D8               	btfsc	status,2,c
  1513   001C2A  EF19  F00E         	goto	u2681
  1514   001C2E  EF1B  F00E         	goto	u2680
  1515   001C32                     u2681:
  1516   001C32  EF2F  F00E         	goto	l1139
  1517   001C36                     u2680:
  1518   001C36  0E01               	movlw	1
  1519   001C38  1416               	andwf	sqrtf@q^0,w,c
  1520   001C3A  6E09               	movwf	??_sqrtf^0,c
  1521   001C3C  0E00               	movlw	0
  1522   001C3E  1417               	andwf	(sqrtf@q+1)^0,w,c
  1523   001C40  6E0A               	movwf	(??_sqrtf+1)^0,c
  1524   001C42  0E00               	movlw	0
  1525   001C44  1418               	andwf	(sqrtf@q+2)^0,w,c
  1526   001C46  6E0B               	movwf	(??_sqrtf+2)^0,c
  1527   001C48  0E00               	movlw	0
  1528   001C4A  1419               	andwf	(sqrtf@q+3)^0,w,c
  1529   001C4C  6E0C               	movwf	(??_sqrtf+3)^0,c
  1530   001C4E  5009               	movf	??_sqrtf^0,w,c
  1531   001C50  2616               	addwf	sqrtf@q^0,f,c
  1532   001C52  500A               	movf	(??_sqrtf+1)^0,w,c
  1533   001C54  2217               	addwfc	(sqrtf@q+1)^0,f,c
  1534   001C56  500B               	movf	(??_sqrtf+2)^0,w,c
  1535   001C58  2218               	addwfc	(sqrtf@q+2)^0,f,c
  1536   001C5A  500C               	movf	(??_sqrtf+3)^0,w,c
  1537   001C5C  2219               	addwfc	(sqrtf@q+3)^0,f,c
  1538   001C5E                     l1139:
  1539   001C5E  C016  F009         	movff	sqrtf@q,??_sqrtf
  1540   001C62  C017  F00A         	movff	sqrtf@q+1,??_sqrtf+1
  1541   001C66  C018  F00B         	movff	sqrtf@q+2,??_sqrtf+2
  1542   001C6A  C019  F00C         	movff	sqrtf@q+3,??_sqrtf+3
  1543   001C6E  340C               	rlcf	(??_sqrtf+3)^0,w,c
  1544   001C70  320C               	rrcf	(??_sqrtf+3)^0,f,c
  1545   001C72  320B               	rrcf	(??_sqrtf+2)^0,f,c
  1546   001C74  320A               	rrcf	(??_sqrtf+1)^0,f,c
  1547   001C76  3209               	rrcf	??_sqrtf^0,f,c
  1548   001C78  0E00               	movlw	0
  1549   001C7A  2409               	addwf	??_sqrtf^0,w,c
  1550   001C7C  6E26               	movwf	sqrtf@ix^0,c
  1551   001C7E  0E00               	movlw	0
  1552   001C80  200A               	addwfc	(??_sqrtf+1)^0,w,c
  1553   001C82  6E27               	movwf	(sqrtf@ix+1)^0,c
  1554   001C84  0E00               	movlw	0
  1555   001C86  200B               	addwfc	(??_sqrtf+2)^0,w,c
  1556   001C88  6E28               	movwf	(sqrtf@ix+2)^0,c
  1557   001C8A  0E3F               	movlw	63
  1558   001C8C  200C               	addwfc	(??_sqrtf+3)^0,w,c
  1559   001C8E  6E29               	movwf	(sqrtf@ix+3)^0,c
  1560   001C90  C01E  F009         	movff	sqrtf@m,??_sqrtf
  1561   001C94  C01F  F00A         	movff	sqrtf@m+1,??_sqrtf+1
  1562   001C98  C020  F00B         	movff	sqrtf@m+2,??_sqrtf+2
  1563   001C9C  C021  F00C         	movff	sqrtf@m+3,??_sqrtf+3
  1564   001CA0  0E17               	movlw	23
  1565   001CA2                     u2695:
  1566   001CA2  90D8               	bcf	status,0,c
  1567   001CA4  3609               	rlcf	??_sqrtf^0,f,c
  1568   001CA6  360A               	rlcf	(??_sqrtf+1)^0,f,c
  1569   001CA8  360B               	rlcf	(??_sqrtf+2)^0,f,c
  1570   001CAA  360C               	rlcf	(??_sqrtf+3)^0,f,c
  1571   001CAC  2EE8               	decfsz	wreg,f,c
  1572   001CAE  EF51  F00E         	goto	u2695
  1573   001CB2  5009               	movf	??_sqrtf^0,w,c
  1574   001CB4  2626               	addwf	sqrtf@ix^0,f,c
  1575   001CB6  500A               	movf	(??_sqrtf+1)^0,w,c
  1576   001CB8  2227               	addwfc	(sqrtf@ix+1)^0,f,c
  1577   001CBA  500B               	movf	(??_sqrtf+2)^0,w,c
  1578   001CBC  2228               	addwfc	(sqrtf@ix+2)^0,f,c
  1579   001CBE  500C               	movf	(??_sqrtf+3)^0,w,c
  1580   001CC0  2229               	addwfc	(sqrtf@ix+3)^0,f,c
  1581   001CC2  EFBE  F00C         	goto	l3007
  1582   001CC6                     l1126:
  1583   001CC6  0012               	return		;funcret
  1584   001CC8                     __end_of_sqrtf:
  1585                           	callstack 0
  1586                           
  1587 ;; *************** function ___xxtofl *****************
  1588 ;; Defined at:
  1589 ;;		line 10 in file "C:\Program Files\Microchip\xc8\v2.45\pic\sources\c99\common\xxtofl.c"
  1590 ;; Parameters:    Size  Location     Type
  1591 ;;  sign            1    wreg     unsigned char 
  1592 ;;  val             4    9[COMRAM] long 
  1593 ;; Auto vars:     Size  Location     Type
  1594 ;;  sign            1   17[COMRAM] unsigned char 
  1595 ;;  arg             4   19[COMRAM] unsigned long 
  1596 ;;  exp             1   18[COMRAM] unsigned char 
  1597 ;; Return value:  Size  Location     Type
  1598 ;;                  4    9[COMRAM] unsigned char 
  1599 ;; Registers used:
  1600 ;;		wreg, status,2, status,0
  1601 ;; Tracked objects:
  1602 ;;		On entry : 0/0
  1603 ;;		On exit  : 0/0
  1604 ;;		Unchanged: 0/0
  1605 ;; Data sizes:     COMRAM   BANK0   BANK1   BANK2   BANK3   BANK4   BANK5   BANK6   BANK7   BANK8   BANK9  BANK10  BANK1
      +1  BANK12  BANK13  BANK14  BANK15
  1606 ;;      Params:         4       0       0       0       0       0       0       0       0       0       0       0       
      +0       0       0       0       0
  1607 ;;      Locals:         6       0       0       0       0       0       0       0       0       0       0       0       
      +0       0       0       0       0
  1608 ;;      Temps:          4       0       0       0       0       0       0       0       0       0       0       0       
      +0       0       0       0       0
  1609 ;;      Totals:        14       0       0       0       0       0       0       0       0       0       0       0       
      +0       0       0       0       0
  1610 ;;Total ram usage:       14 bytes
  1611 ;; Hardware stack levels used: 1
  1612 ;; Hardware stack levels required when called: 3
  1613 ;; This function calls:
  1614 ;;		Nothing
  1615 ;; This function is called by:
  1616 ;;		_StandardDev
  1617 ;;		_EMGServoVrednosti
  1618 ;; This function uses a non-reentrant model
  1619 ;;
  1620                           
  1621                           	psect	text6
  1622   002062                     __ptext6:
  1623                           	callstack 0
  1624   002062                     ___xxtofl:
  1625                           	callstack 26
  1626                           
  1627                           ;incstack = 0
  1628                           ;___xxtofl@sign stored from wreg
  1629   002062  6E12               	movwf	___xxtofl@sign^0,c
  1630   002064  5012               	movf	___xxtofl@sign^0,w,c
  1631   002066  B4D8               	btfsc	status,2,c
  1632   002068  EF38  F010         	goto	u3541
  1633   00206C  EF3A  F010         	goto	u3540
  1634   002070                     u3541:
  1635   002070  EF5C  F010         	goto	l1101
  1636   002074                     u3540:
  1637   002074  BE0D               	btfsc	(___xxtofl@val+3)^0,7,c
  1638   002076  EF41  F010         	goto	u3550
  1639   00207A  EF3F  F010         	goto	u3551
  1640   00207E                     u3551:
  1641   00207E  EF5C  F010         	goto	l1101
  1642   002082                     u3550:
  1643   002082  C00A  F00E         	movff	___xxtofl@val,??___xxtofl
  1644   002086  C00B  F00F         	movff	___xxtofl@val+1,??___xxtofl+1
  1645   00208A  C00C  F010         	movff	___xxtofl@val+2,??___xxtofl+2
  1646   00208E  C00D  F011         	movff	___xxtofl@val+3,??___xxtofl+3
  1647   002092  1E0E               	comf	??___xxtofl^0,f,c
  1648   002094  1E0F               	comf	(??___xxtofl+1)^0,f,c
  1649   002096  1E10               	comf	(??___xxtofl+2)^0,f,c
  1650   002098  1E11               	comf	(??___xxtofl+3)^0,f,c
  1651   00209A  2A0E               	incf	??___xxtofl^0,f,c
  1652   00209C  0E00               	movlw	0
  1653   00209E  220F               	addwfc	(??___xxtofl+1)^0,f,c
  1654   0020A0  2210               	addwfc	(??___xxtofl+2)^0,f,c
  1655   0020A2  2211               	addwfc	(??___xxtofl+3)^0,f,c
  1656   0020A4  C00E  F014         	movff	??___xxtofl,___xxtofl@arg
  1657   0020A8  C00F  F015         	movff	??___xxtofl+1,___xxtofl@arg+1
  1658   0020AC  C010  F016         	movff	??___xxtofl+2,___xxtofl@arg+2
  1659   0020B0  C011  F017         	movff	??___xxtofl+3,___xxtofl@arg+3
  1660   0020B4  EF64  F010         	goto	l3555
  1661   0020B8                     l1101:
  1662   0020B8  C00A  F014         	movff	___xxtofl@val,___xxtofl@arg
  1663   0020BC  C00B  F015         	movff	___xxtofl@val+1,___xxtofl@arg+1
  1664   0020C0  C00C  F016         	movff	___xxtofl@val+2,___xxtofl@arg+2
  1665   0020C4  C00D  F017         	movff	___xxtofl@val+3,___xxtofl@arg+3
  1666   0020C8                     l3555:
  1667   0020C8  500A               	movf	___xxtofl@val^0,w,c
  1668   0020CA  100B               	iorwf	(___xxtofl@val+1)^0,w,c
  1669   0020CC  100C               	iorwf	(___xxtofl@val+2)^0,w,c
  1670   0020CE  100D               	iorwf	(___xxtofl@val+3)^0,w,c
  1671   0020D0  A4D8               	btfss	status,2,c
  1672   0020D2  EF6D  F010         	goto	u3561
  1673   0020D6  EF6F  F010         	goto	u3560
  1674   0020DA                     u3561:
  1675   0020DA  EF79  F010         	goto	l3561
  1676   0020DE                     u3560:
  1677   0020DE  0E00               	movlw	0
  1678   0020E0  6E0A               	movwf	?___xxtofl^0,c
  1679   0020E2  0E00               	movlw	0
  1680   0020E4  6E0B               	movwf	(?___xxtofl+1)^0,c
  1681   0020E6  0E00               	movlw	0
  1682   0020E8  6E0C               	movwf	(?___xxtofl+2)^0,c
  1683   0020EA  0E00               	movlw	0
  1684   0020EC  6E0D               	movwf	(?___xxtofl+3)^0,c
  1685   0020EE  EF0A  F011         	goto	l1104
  1686   0020F2                     l3561:
  1687   0020F2  0E96               	movlw	150
  1688   0020F4  6E13               	movwf	___xxtofl@exp^0,c
  1689   0020F6  EF83  F010         	goto	l3565
  1690   0020FA                     l3563:
  1691   0020FA  2A13               	incf	___xxtofl@exp^0,f,c
  1692   0020FC  90D8               	bcf	status,0,c
  1693   0020FE  3217               	rrcf	(___xxtofl@arg+3)^0,f,c
  1694   002100  3216               	rrcf	(___xxtofl@arg+2)^0,f,c
  1695   002102  3215               	rrcf	(___xxtofl@arg+1)^0,f,c
  1696   002104  3214               	rrcf	___xxtofl@arg^0,f,c
  1697   002106                     l3565:
  1698   002106  0E00               	movlw	0
  1699   002108  1414               	andwf	___xxtofl@arg^0,w,c
  1700   00210A  6E0E               	movwf	??___xxtofl^0,c
  1701   00210C  0E00               	movlw	0
  1702   00210E  1415               	andwf	(___xxtofl@arg+1)^0,w,c
  1703   002110  6E0F               	movwf	(??___xxtofl+1)^0,c
  1704   002112  0E00               	movlw	0
  1705   002114  1416               	andwf	(___xxtofl@arg+2)^0,w,c
  1706   002116  6E10               	movwf	(??___xxtofl+2)^0,c
  1707   002118  0EFE               	movlw	254
  1708   00211A  1417               	andwf	(___xxtofl@arg+3)^0,w,c
  1709   00211C  6E11               	movwf	(??___xxtofl+3)^0,c
  1710   00211E  500E               	movf	??___xxtofl^0,w,c
  1711   002120  100F               	iorwf	(??___xxtofl+1)^0,w,c
  1712   002122  1010               	iorwf	(??___xxtofl+2)^0,w,c
  1713   002124  1011               	iorwf	(??___xxtofl+3)^0,w,c
  1714   002126  A4D8               	btfss	status,2,c
  1715   002128  EF98  F010         	goto	u3571
  1716   00212C  EF9A  F010         	goto	u3570
  1717   002130                     u3571:
  1718   002130  EF7D  F010         	goto	l3563
  1719   002134                     u3570:
  1720   002134  EFA8  F010         	goto	l1108
  1721   002138                     l3567:
  1722   002138  2A13               	incf	___xxtofl@exp^0,f,c
  1723   00213A  0E01               	movlw	1
  1724   00213C  2614               	addwf	___xxtofl@arg^0,f,c
  1725   00213E  0E00               	movlw	0
  1726   002140  2215               	addwfc	(___xxtofl@arg+1)^0,f,c
  1727   002142  2216               	addwfc	(___xxtofl@arg+2)^0,f,c
  1728   002144  2217               	addwfc	(___xxtofl@arg+3)^0,f,c
  1729   002146  90D8               	bcf	status,0,c
  1730   002148  3217               	rrcf	(___xxtofl@arg+3)^0,f,c
  1731   00214A  3216               	rrcf	(___xxtofl@arg+2)^0,f,c
  1732   00214C  3215               	rrcf	(___xxtofl@arg+1)^0,f,c
  1733   00214E  3214               	rrcf	___xxtofl@arg^0,f,c
  1734   002150                     l1108:
  1735   002150  0E00               	movlw	0
  1736   002152  1414               	andwf	___xxtofl@arg^0,w,c
  1737   002154  6E0E               	movwf	??___xxtofl^0,c
  1738   002156  0E00               	movlw	0
  1739   002158  1415               	andwf	(___xxtofl@arg+1)^0,w,c
  1740   00215A  6E0F               	movwf	(??___xxtofl+1)^0,c
  1741   00215C  0E00               	movlw	0
  1742   00215E  1416               	andwf	(___xxtofl@arg+2)^0,w,c
  1743   002160  6E10               	movwf	(??___xxtofl+2)^0,c
  1744   002162  0EFF               	movlw	255
  1745   002164  1417               	andwf	(___xxtofl@arg+3)^0,w,c
  1746   002166  6E11               	movwf	(??___xxtofl+3)^0,c
  1747   002168  500E               	movf	??___xxtofl^0,w,c
  1748   00216A  100F               	iorwf	(??___xxtofl+1)^0,w,c
  1749   00216C  1010               	iorwf	(??___xxtofl+2)^0,w,c
  1750   00216E  1011               	iorwf	(??___xxtofl+3)^0,w,c
  1751   002170  A4D8               	btfss	status,2,c
  1752   002172  EFBD  F010         	goto	u3581
  1753   002176  EFBF  F010         	goto	u3580
  1754   00217A                     u3581:
  1755   00217A  EF9C  F010         	goto	l3567
  1756   00217E                     u3580:
  1757   00217E  EFC7  F010         	goto	l3575
  1758   002182                     l3573:
  1759   002182  0613               	decf	___xxtofl@exp^0,f,c
  1760   002184  90D8               	bcf	status,0,c
  1761   002186  3614               	rlcf	___xxtofl@arg^0,f,c
  1762   002188  3615               	rlcf	(___xxtofl@arg+1)^0,f,c
  1763   00218A  3616               	rlcf	(___xxtofl@arg+2)^0,f,c
  1764   00218C  3617               	rlcf	(___xxtofl@arg+3)^0,f,c
  1765   00218E                     l3575:
  1766   00218E  BE16               	btfsc	(___xxtofl@arg+2)^0,7,c
  1767   002190  EFCC  F010         	goto	u3591
  1768   002194  EFCE  F010         	goto	u3590
  1769   002198                     u3591:
  1770   002198  EFD6  F010         	goto	l1115
  1771   00219C                     u3590:
  1772   00219C  0E02               	movlw	2
  1773   00219E  6013               	cpfslt	___xxtofl@exp^0,c
  1774   0021A0  EFD4  F010         	goto	u3601
  1775   0021A4  EFD6  F010         	goto	u3600
  1776   0021A8                     u3601:
  1777   0021A8  EFC1  F010         	goto	l3573
  1778   0021AC                     u3600:
  1779   0021AC                     l1115:
  1780   0021AC  B013               	btfsc	___xxtofl@exp^0,0,c
  1781   0021AE  EFDB  F010         	goto	u3611
  1782   0021B2  EFDD  F010         	goto	u3610
  1783   0021B6                     u3611:
  1784   0021B6  EFDE  F010         	goto	l3581
  1785   0021BA                     u3610:
  1786   0021BA  9E16               	bcf	(___xxtofl@arg+2)^0,7,c
  1787   0021BC                     l3581:
  1788   0021BC  90D8               	bcf	status,0,c
  1789   0021BE  3213               	rrcf	___xxtofl@exp^0,f,c
  1790   0021C0  C013  F00E         	movff	___xxtofl@exp,??___xxtofl
  1791   0021C4  6A0F               	clrf	(??___xxtofl+1)^0,c
  1792   0021C6  6A10               	clrf	(??___xxtofl+2)^0,c
  1793   0021C8  6A11               	clrf	(??___xxtofl+3)^0,c
  1794   0021CA  C00E  F011         	movff	??___xxtofl,??___xxtofl+3
  1795   0021CE  6A10               	clrf	(??___xxtofl+2)^0,c
  1796   0021D0  6A0F               	clrf	(??___xxtofl+1)^0,c
  1797   0021D2  6A0E               	clrf	??___xxtofl^0,c
  1798   0021D4  500E               	movf	??___xxtofl^0,w,c
  1799   0021D6  1214               	iorwf	___xxtofl@arg^0,f,c
  1800   0021D8  500F               	movf	(??___xxtofl+1)^0,w,c
  1801   0021DA  1215               	iorwf	(___xxtofl@arg+1)^0,f,c
  1802   0021DC  5010               	movf	(??___xxtofl+2)^0,w,c
  1803   0021DE  1216               	iorwf	(___xxtofl@arg+2)^0,f,c
  1804   0021E0  5011               	movf	(??___xxtofl+3)^0,w,c
  1805   0021E2  1217               	iorwf	(___xxtofl@arg+3)^0,f,c
  1806   0021E4  5012               	movf	___xxtofl@sign^0,w,c
  1807   0021E6  B4D8               	btfsc	status,2,c
  1808   0021E8  EFF8  F010         	goto	u3621
  1809   0021EC  EFFA  F010         	goto	u3620
  1810   0021F0                     u3621:
  1811   0021F0  EF02  F011         	goto	l3591
  1812   0021F4                     u3620:
  1813   0021F4  BE0D               	btfsc	(___xxtofl@val+3)^0,7,c
  1814   0021F6  EF01  F011         	goto	u3630
  1815   0021FA  EFFF  F010         	goto	u3631
  1816   0021FE                     u3631:
  1817   0021FE  EF02  F011         	goto	l3591
  1818   002202                     u3630:
  1819   002202  8E17               	bsf	(___xxtofl@arg+3)^0,7,c
  1820   002204                     l3591:
  1821   002204  C014  F00A         	movff	___xxtofl@arg,?___xxtofl
  1822   002208  C015  F00B         	movff	___xxtofl@arg+1,?___xxtofl+1
  1823   00220C  C016  F00C         	movff	___xxtofl@arg+2,?___xxtofl+2
  1824   002210  C017  F00D         	movff	___xxtofl@arg+3,?___xxtofl+3
  1825   002214                     l1104:
  1826   002214  0012               	return		;funcret
  1827   002216                     __end_of___xxtofl:
  1828                           	callstack 0
  1829                           
  1830 ;; *************** function ___flmul *****************
  1831 ;; Defined at:
  1832 ;;		line 8 in file "C:\Program Files\Microchip\xc8\v2.45\pic\sources\c99\common\sprcmul.c"
  1833 ;; Parameters:    Size  Location     Type
  1834 ;;  b               4    4[COMRAM] unsigned char 
  1835 ;;  a               4    8[COMRAM] unsigned char 
  1836 ;; Auto vars:     Size  Location     Type
  1837 ;;  prod            4   23[COMRAM] struct .
  1838 ;;  grs             4   18[COMRAM] unsigned long 
  1839 ;;  temp            2   27[COMRAM] struct .
  1840 ;;  bexp            1   22[COMRAM] unsigned char 
  1841 ;;  aexp            1   17[COMRAM] unsigned char 
  1842 ;;  sign            1   16[COMRAM] unsigned char 
  1843 ;; Return value:  Size  Location     Type
  1844 ;;                  4    4[COMRAM] unsigned char 
  1845 ;; Registers used:
  1846 ;;		wreg, status,2, status,0, prodl, prodh
  1847 ;; Tracked objects:
  1848 ;;		On entry : 0/0
  1849 ;;		On exit  : 0/0
  1850 ;;		Unchanged: 0/0
  1851 ;; Data sizes:     COMRAM   BANK0   BANK1   BANK2   BANK3   BANK4   BANK5   BANK6   BANK7   BANK8   BANK9  BANK10  BANK1
      +1  BANK12  BANK13  BANK14  BANK15
  1852 ;;      Params:         8       0       0       0       0       0       0       0       0       0       0       0       
      +0       0       0       0       0
  1853 ;;      Locals:        13       0       0       0       0       0       0       0       0       0       0       0       
      +0       0       0       0       0
  1854 ;;      Temps:          4       0       0       0       0       0       0       0       0       0       0       0       
      +0       0       0       0       0
  1855 ;;      Totals:        25       0       0       0       0       0       0       0       0       0       0       0       
      +0       0       0       0       0
  1856 ;;Total ram usage:       25 bytes
  1857 ;; Hardware stack levels used: 1
  1858 ;; Hardware stack levels required when called: 3
  1859 ;; This function calls:
  1860 ;;		Nothing
  1861 ;; This function is called by:
  1862 ;;		_StandardDev
  1863 ;;		_calculateThreshold
  1864 ;; This function uses a non-reentrant model
  1865 ;;
  1866                           
  1867                           	psect	text7
  1868   0014C2                     __ptext7:
  1869                           	callstack 0
  1870   0014C2                     ___flmul:
  1871                           	callstack 26
  1872   0014C2  5008               	movf	(___flmul@b+3)^0,w,c
  1873   0014C4  0B80               	andlw	128
  1874   0014C6  6E11               	movwf	___flmul@sign^0,c
  1875   0014C8  5008               	movf	(___flmul@b+3)^0,w,c
  1876   0014CA  2408               	addwf	(___flmul@b+3)^0,w,c
  1877   0014CC  6E17               	movwf	___flmul@bexp^0,c
  1878   0014CE  AE07               	btfss	(___flmul@b+2)^0,7,c
  1879   0014D0  EF6C  F00A         	goto	u3321
  1880   0014D4  EF6E  F00A         	goto	u3320
  1881   0014D8                     u3321:
  1882   0014D8  EF6F  F00A         	goto	l3409
  1883   0014DC                     u3320:
  1884   0014DC  8017               	bsf	___flmul@bexp^0,0,c
  1885   0014DE                     l3409:
  1886   0014DE  5017               	movf	___flmul@bexp^0,w,c
  1887   0014E0  B4D8               	btfsc	status,2,c
  1888   0014E2  EF75  F00A         	goto	u3331
  1889   0014E6  EF77  F00A         	goto	u3330
  1890   0014EA                     u3331:
  1891   0014EA  EF8A  F00A         	goto	l3417
  1892   0014EE                     u3330:
  1893   0014EE  2817               	incf	___flmul@bexp^0,w,c
  1894   0014F0  A4D8               	btfss	status,2,c
  1895   0014F2  EF7D  F00A         	goto	u3341
  1896   0014F6  EF7F  F00A         	goto	u3340
  1897   0014FA                     u3341:
  1898   0014FA  EF87  F00A         	goto	l3415
  1899   0014FE                     u3340:
  1900   0014FE  0E00               	movlw	0
  1901   001500  6E05               	movwf	___flmul@b^0,c
  1902   001502  0E00               	movlw	0
  1903   001504  6E06               	movwf	(___flmul@b+1)^0,c
  1904   001506  0E00               	movlw	0
  1905   001508  6E07               	movwf	(___flmul@b+2)^0,c
  1906   00150A  0E00               	movlw	0
  1907   00150C  6E08               	movwf	(___flmul@b+3)^0,c
  1908   00150E                     l3415:
  1909   00150E  8E07               	bsf	(___flmul@b+2)^0,7,c
  1910   001510  EF92  F00A         	goto	l3419
  1911   001514                     l3417:
  1912   001514  0E00               	movlw	0
  1913   001516  6E05               	movwf	___flmul@b^0,c
  1914   001518  0E00               	movlw	0
  1915   00151A  6E06               	movwf	(___flmul@b+1)^0,c
  1916   00151C  0E00               	movlw	0
  1917   00151E  6E07               	movwf	(___flmul@b+2)^0,c
  1918   001520  0E00               	movlw	0
  1919   001522  6E08               	movwf	(___flmul@b+3)^0,c
  1920   001524                     l3419:
  1921   001524  500C               	movf	(___flmul@a+3)^0,w,c
  1922   001526  0B80               	andlw	128
  1923   001528  1A11               	xorwf	___flmul@sign^0,f,c
  1924   00152A  500C               	movf	(___flmul@a+3)^0,w,c
  1925   00152C  240C               	addwf	(___flmul@a+3)^0,w,c
  1926   00152E  6E12               	movwf	___flmul@aexp^0,c
  1927   001530  AE0B               	btfss	(___flmul@a+2)^0,7,c
  1928   001532  EF9D  F00A         	goto	u3351
  1929   001536  EF9F  F00A         	goto	u3350
  1930   00153A                     u3351:
  1931   00153A  EFA0  F00A         	goto	l3427
  1932   00153E                     u3350:
  1933   00153E  8012               	bsf	___flmul@aexp^0,0,c
  1934   001540                     l3427:
  1935   001540  5012               	movf	___flmul@aexp^0,w,c
  1936   001542  B4D8               	btfsc	status,2,c
  1937   001544  EFA6  F00A         	goto	u3361
  1938   001548  EFA8  F00A         	goto	u3360
  1939   00154C                     u3361:
  1940   00154C  EFBB  F00A         	goto	l3435
  1941   001550                     u3360:
  1942   001550  2812               	incf	___flmul@aexp^0,w,c
  1943   001552  A4D8               	btfss	status,2,c
  1944   001554  EFAE  F00A         	goto	u3371
  1945   001558  EFB0  F00A         	goto	u3370
  1946   00155C                     u3371:
  1947   00155C  EFB8  F00A         	goto	l3433
  1948   001560                     u3370:
  1949   001560  0E00               	movlw	0
  1950   001562  6E09               	movwf	___flmul@a^0,c
  1951   001564  0E00               	movlw	0
  1952   001566  6E0A               	movwf	(___flmul@a+1)^0,c
  1953   001568  0E00               	movlw	0
  1954   00156A  6E0B               	movwf	(___flmul@a+2)^0,c
  1955   00156C  0E00               	movlw	0
  1956   00156E  6E0C               	movwf	(___flmul@a+3)^0,c
  1957   001570                     l3433:
  1958   001570  8E0B               	bsf	(___flmul@a+2)^0,7,c
  1959   001572  EFC3  F00A         	goto	l1060
  1960   001576                     l3435:
  1961   001576  0E00               	movlw	0
  1962   001578  6E09               	movwf	___flmul@a^0,c
  1963   00157A  0E00               	movlw	0
  1964   00157C  6E0A               	movwf	(___flmul@a+1)^0,c
  1965   00157E  0E00               	movlw	0
  1966   001580  6E0B               	movwf	(___flmul@a+2)^0,c
  1967   001582  0E00               	movlw	0
  1968   001584  6E0C               	movwf	(___flmul@a+3)^0,c
  1969   001586                     l1060:
  1970   001586  5012               	movf	___flmul@aexp^0,w,c
  1971   001588  B4D8               	btfsc	status,2,c
  1972   00158A  EFC9  F00A         	goto	u3381
  1973   00158E  EFCB  F00A         	goto	u3380
  1974   001592                     u3381:
  1975   001592  EFD3  F00A         	goto	l3439
  1976   001596                     u3380:
  1977   001596  5017               	movf	___flmul@bexp^0,w,c
  1978   001598  A4D8               	btfss	status,2,c
  1979   00159A  EFD1  F00A         	goto	u3391
  1980   00159E  EFD3  F00A         	goto	u3390
  1981   0015A2                     u3391:
  1982   0015A2  EFDD  F00A         	goto	l3443
  1983   0015A6                     u3390:
  1984   0015A6                     l3439:
  1985   0015A6  0E00               	movlw	0
  1986   0015A8  6E05               	movwf	?___flmul^0,c
  1987   0015AA  0E00               	movlw	0
  1988   0015AC  6E06               	movwf	(?___flmul+1)^0,c
  1989   0015AE  0E00               	movlw	0
  1990   0015B0  6E07               	movwf	(?___flmul+2)^0,c
  1991   0015B2  0E00               	movlw	0
  1992   0015B4  6E08               	movwf	(?___flmul+3)^0,c
  1993   0015B6  EF75  F00C         	goto	l1064
  1994   0015BA                     l3443:
  1995   0015BA  500B               	movf	(___flmul@a+2)^0,w,c
  1996   0015BC  0205               	mulwf	___flmul@b^0,c
  1997   0015BE  CFF3 F01C          	movff	prodl,___flmul@temp
  1998   0015C2  CFF4 F01D          	movff	prodh,___flmul@temp+1
  1999   0015C6  501C               	movf	___flmul@temp^0,w,c
  2000   0015C8  6E13               	movwf	___flmul@grs^0,c
  2001   0015CA  6A14               	clrf	(___flmul@grs+1)^0,c
  2002   0015CC  6A15               	clrf	(___flmul@grs+2)^0,c
  2003   0015CE  6A16               	clrf	(___flmul@grs+3)^0,c
  2004   0015D0  501D               	movf	(___flmul@temp+1)^0,w,c
  2005   0015D2  6E18               	movwf	___flmul@prod^0,c
  2006   0015D4  6A19               	clrf	(___flmul@prod+1)^0,c
  2007   0015D6  6A1A               	clrf	(___flmul@prod+2)^0,c
  2008   0015D8  6A1B               	clrf	(___flmul@prod+3)^0,c
  2009   0015DA  500A               	movf	(___flmul@a+1)^0,w,c
  2010   0015DC  0206               	mulwf	(___flmul@b+1)^0,c
  2011   0015DE  CFF3 F01C          	movff	prodl,___flmul@temp
  2012   0015E2  CFF4 F01D          	movff	prodh,___flmul@temp+1
  2013   0015E6  501C               	movf	___flmul@temp^0,w,c
  2014   0015E8  2613               	addwf	___flmul@grs^0,f,c
  2015   0015EA  0E00               	movlw	0
  2016   0015EC  2214               	addwfc	(___flmul@grs+1)^0,f,c
  2017   0015EE  2215               	addwfc	(___flmul@grs+2)^0,f,c
  2018   0015F0  2216               	addwfc	(___flmul@grs+3)^0,f,c
  2019   0015F2  501D               	movf	(___flmul@temp+1)^0,w,c
  2020   0015F4  2618               	addwf	___flmul@prod^0,f,c
  2021   0015F6  0E00               	movlw	0
  2022   0015F8  2219               	addwfc	(___flmul@prod+1)^0,f,c
  2023   0015FA  221A               	addwfc	(___flmul@prod+2)^0,f,c
  2024   0015FC  221B               	addwfc	(___flmul@prod+3)^0,f,c
  2025   0015FE  5009               	movf	___flmul@a^0,w,c
  2026   001600  0207               	mulwf	(___flmul@b+2)^0,c
  2027   001602  CFF3 F01C          	movff	prodl,___flmul@temp
  2028   001606  CFF4 F01D          	movff	prodh,___flmul@temp+1
  2029   00160A  501C               	movf	___flmul@temp^0,w,c
  2030   00160C  2613               	addwf	___flmul@grs^0,f,c
  2031   00160E  0E00               	movlw	0
  2032   001610  2214               	addwfc	(___flmul@grs+1)^0,f,c
  2033   001612  2215               	addwfc	(___flmul@grs+2)^0,f,c
  2034   001614  2216               	addwfc	(___flmul@grs+3)^0,f,c
  2035   001616  501D               	movf	(___flmul@temp+1)^0,w,c
  2036   001618  2618               	addwf	___flmul@prod^0,f,c
  2037   00161A  0E00               	movlw	0
  2038   00161C  2219               	addwfc	(___flmul@prod+1)^0,f,c
  2039   00161E  221A               	addwfc	(___flmul@prod+2)^0,f,c
  2040   001620  221B               	addwfc	(___flmul@prod+3)^0,f,c
  2041   001622  C015  F016         	movff	___flmul@grs+2,___flmul@grs+3
  2042   001626  C014  F015         	movff	___flmul@grs+1,___flmul@grs+2
  2043   00162A  C013  F014         	movff	___flmul@grs,___flmul@grs+1
  2044   00162E  6A13               	clrf	___flmul@grs^0,c
  2045   001630  5009               	movf	___flmul@a^0,w,c
  2046   001632  0206               	mulwf	(___flmul@b+1)^0,c
  2047   001634  CFF3 F01C          	movff	prodl,___flmul@temp
  2048   001638  CFF4 F01D          	movff	prodh,___flmul@temp+1
  2049   00163C  501C               	movf	___flmul@temp^0,w,c
  2050   00163E  2613               	addwf	___flmul@grs^0,f,c
  2051   001640  501D               	movf	(___flmul@temp+1)^0,w,c
  2052   001642  2214               	addwfc	(___flmul@grs+1)^0,f,c
  2053   001644  0E00               	movlw	0
  2054   001646  2215               	addwfc	(___flmul@grs+2)^0,f,c
  2055   001648  0E00               	movlw	0
  2056   00164A  2216               	addwfc	(___flmul@grs+3)^0,f,c
  2057   00164C  500A               	movf	(___flmul@a+1)^0,w,c
  2058   00164E  0205               	mulwf	___flmul@b^0,c
  2059   001650  CFF3 F01C          	movff	prodl,___flmul@temp
  2060   001654  CFF4 F01D          	movff	prodh,___flmul@temp+1
  2061   001658  501C               	movf	___flmul@temp^0,w,c
  2062   00165A  2613               	addwf	___flmul@grs^0,f,c
  2063   00165C  501D               	movf	(___flmul@temp+1)^0,w,c
  2064   00165E  2214               	addwfc	(___flmul@grs+1)^0,f,c
  2065   001660  0E00               	movlw	0
  2066   001662  2215               	addwfc	(___flmul@grs+2)^0,f,c
  2067   001664  0E00               	movlw	0
  2068   001666  2216               	addwfc	(___flmul@grs+3)^0,f,c
  2069   001668  C015  F016         	movff	___flmul@grs+2,___flmul@grs+3
  2070   00166C  C014  F015         	movff	___flmul@grs+1,___flmul@grs+2
  2071   001670  C013  F014         	movff	___flmul@grs,___flmul@grs+1
  2072   001674  6A13               	clrf	___flmul@grs^0,c
  2073   001676  5009               	movf	___flmul@a^0,w,c
  2074   001678  0205               	mulwf	___flmul@b^0,c
  2075   00167A  CFF3 F01C          	movff	prodl,___flmul@temp
  2076   00167E  CFF4 F01D          	movff	prodh,___flmul@temp+1
  2077   001682  501C               	movf	___flmul@temp^0,w,c
  2078   001684  2613               	addwf	___flmul@grs^0,f,c
  2079   001686  501D               	movf	(___flmul@temp+1)^0,w,c
  2080   001688  2214               	addwfc	(___flmul@grs+1)^0,f,c
  2081   00168A  0E00               	movlw	0
  2082   00168C  2215               	addwfc	(___flmul@grs+2)^0,f,c
  2083   00168E  0E00               	movlw	0
  2084   001690  2216               	addwfc	(___flmul@grs+3)^0,f,c
  2085   001692  500B               	movf	(___flmul@a+2)^0,w,c
  2086   001694  0206               	mulwf	(___flmul@b+1)^0,c
  2087   001696  CFF3 F01C          	movff	prodl,___flmul@temp
  2088   00169A  CFF4 F01D          	movff	prodh,___flmul@temp+1
  2089   00169E  501C               	movf	___flmul@temp^0,w,c
  2090   0016A0  2618               	addwf	___flmul@prod^0,f,c
  2091   0016A2  501D               	movf	(___flmul@temp+1)^0,w,c
  2092   0016A4  2219               	addwfc	(___flmul@prod+1)^0,f,c
  2093   0016A6  0E00               	movlw	0
  2094   0016A8  221A               	addwfc	(___flmul@prod+2)^0,f,c
  2095   0016AA  0E00               	movlw	0
  2096   0016AC  221B               	addwfc	(___flmul@prod+3)^0,f,c
  2097   0016AE  500A               	movf	(___flmul@a+1)^0,w,c
  2098   0016B0  0207               	mulwf	(___flmul@b+2)^0,c
  2099   0016B2  CFF3 F01C          	movff	prodl,___flmul@temp
  2100   0016B6  CFF4 F01D          	movff	prodh,___flmul@temp+1
  2101   0016BA  501C               	movf	___flmul@temp^0,w,c
  2102   0016BC  2618               	addwf	___flmul@prod^0,f,c
  2103   0016BE  501D               	movf	(___flmul@temp+1)^0,w,c
  2104   0016C0  2219               	addwfc	(___flmul@prod+1)^0,f,c
  2105   0016C2  0E00               	movlw	0
  2106   0016C4  221A               	addwfc	(___flmul@prod+2)^0,f,c
  2107   0016C6  0E00               	movlw	0
  2108   0016C8  221B               	addwfc	(___flmul@prod+3)^0,f,c
  2109   0016CA  500B               	movf	(___flmul@a+2)^0,w,c
  2110   0016CC  0207               	mulwf	(___flmul@b+2)^0,c
  2111   0016CE  CFF3 F01C          	movff	prodl,___flmul@temp
  2112   0016D2  CFF4 F01D          	movff	prodh,___flmul@temp+1
  2113   0016D6  501C               	movf	___flmul@temp^0,w,c
  2114   0016D8  6E0D               	movwf	??___flmul^0,c
  2115   0016DA  501D               	movf	(___flmul@temp+1)^0,w,c
  2116   0016DC  6E0E               	movwf	(??___flmul+1)^0,c
  2117   0016DE  6A0F               	clrf	(??___flmul+2)^0,c
  2118   0016E0  6A10               	clrf	(??___flmul+3)^0,c
  2119   0016E2  C00F  F010         	movff	??___flmul+2,??___flmul+3
  2120   0016E6  C00E  F00F         	movff	??___flmul+1,??___flmul+2
  2121   0016EA  C00D  F00E         	movff	??___flmul,??___flmul+1
  2122   0016EE  6A0D               	clrf	??___flmul^0,c
  2123   0016F0  500D               	movf	??___flmul^0,w,c
  2124   0016F2  2618               	addwf	___flmul@prod^0,f,c
  2125   0016F4  500E               	movf	(??___flmul+1)^0,w,c
  2126   0016F6  2219               	addwfc	(___flmul@prod+1)^0,f,c
  2127   0016F8  500F               	movf	(??___flmul+2)^0,w,c
  2128   0016FA  221A               	addwfc	(___flmul@prod+2)^0,f,c
  2129   0016FC  5010               	movf	(??___flmul+3)^0,w,c
  2130   0016FE  221B               	addwfc	(___flmul@prod+3)^0,f,c
  2131   001700  C013  F00D         	movff	___flmul@grs,??___flmul
  2132   001704  C014  F00E         	movff	___flmul@grs+1,??___flmul+1
  2133   001708  C015  F00F         	movff	___flmul@grs+2,??___flmul+2
  2134   00170C  C016  F010         	movff	___flmul@grs+3,??___flmul+3
  2135   001710  0E19               	movlw	25
  2136   001712  EF90  F00B         	goto	u3400
  2137   001716                     u3405:
  2138   001716  90D8               	bcf	status,0,c
  2139   001718  3210               	rrcf	(??___flmul+3)^0,f,c
  2140   00171A  320F               	rrcf	(??___flmul+2)^0,f,c
  2141   00171C  320E               	rrcf	(??___flmul+1)^0,f,c
  2142   00171E  320D               	rrcf	??___flmul^0,f,c
  2143   001720                     u3400:
  2144   001720  2EE8               	decfsz	wreg,f,c
  2145   001722  EF8B  F00B         	goto	u3405
  2146   001726  500D               	movf	??___flmul^0,w,c
  2147   001728  2618               	addwf	___flmul@prod^0,f,c
  2148   00172A  500E               	movf	(??___flmul+1)^0,w,c
  2149   00172C  2219               	addwfc	(___flmul@prod+1)^0,f,c
  2150   00172E  500F               	movf	(??___flmul+2)^0,w,c
  2151   001730  221A               	addwfc	(___flmul@prod+2)^0,f,c
  2152   001732  5010               	movf	(??___flmul+3)^0,w,c
  2153   001734  221B               	addwfc	(___flmul@prod+3)^0,f,c
  2154   001736  C015  F016         	movff	___flmul@grs+2,___flmul@grs+3
  2155   00173A  C014  F015         	movff	___flmul@grs+1,___flmul@grs+2
  2156   00173E  C013  F014         	movff	___flmul@grs,___flmul@grs+1
  2157   001742  6A13               	clrf	___flmul@grs^0,c
  2158   001744  5012               	movf	___flmul@aexp^0,w,c
  2159   001746  C017  F00D         	movff	___flmul@bexp,??___flmul
  2160   00174A  6A0E               	clrf	(??___flmul+1)^0,c
  2161   00174C  260D               	addwf	??___flmul^0,f,c
  2162   00174E  0E00               	movlw	0
  2163   001750  220E               	addwfc	(??___flmul+1)^0,f,c
  2164   001752  0E82               	movlw	130
  2165   001754  240D               	addwf	??___flmul^0,w,c
  2166   001756  6E1C               	movwf	___flmul@temp^0,c
  2167   001758  0EFF               	movlw	255
  2168   00175A  200E               	addwfc	(??___flmul+1)^0,w,c
  2169   00175C  6E1D               	movwf	(___flmul@temp+1)^0,c
  2170   00175E  EFC6  F00B         	goto	l3491
  2171   001762                     l3485:
  2172   001762  90D8               	bcf	status,0,c
  2173   001764  3618               	rlcf	___flmul@prod^0,f,c
  2174   001766  3619               	rlcf	(___flmul@prod+1)^0,f,c
  2175   001768  361A               	rlcf	(___flmul@prod+2)^0,f,c
  2176   00176A  361B               	rlcf	(___flmul@prod+3)^0,f,c
  2177   00176C  AE16               	btfss	(___flmul@grs+3)^0,7,c
  2178   00176E  EFBB  F00B         	goto	u3411
  2179   001772  EFBD  F00B         	goto	u3410
  2180   001776                     u3411:
  2181   001776  EFBE  F00B         	goto	l1067
  2182   00177A                     u3410:
  2183   00177A  8018               	bsf	___flmul@prod^0,0,c
  2184   00177C                     l1067:
  2185   00177C  90D8               	bcf	status,0,c
  2186   00177E  3613               	rlcf	___flmul@grs^0,f,c
  2187   001780  3614               	rlcf	(___flmul@grs+1)^0,f,c
  2188   001782  3615               	rlcf	(___flmul@grs+2)^0,f,c
  2189   001784  3616               	rlcf	(___flmul@grs+3)^0,f,c
  2190   001786  061C               	decf	___flmul@temp^0,f,c
  2191   001788  A0D8               	btfss	status,0,c
  2192   00178A  061D               	decf	(___flmul@temp+1)^0,f,c
  2193   00178C                     l3491:
  2194   00178C  AE1A               	btfss	(___flmul@prod+2)^0,7,c
  2195   00178E  EFCB  F00B         	goto	u3421
  2196   001792  EFCD  F00B         	goto	u3420
  2197   001796                     u3421:
  2198   001796  EFB1  F00B         	goto	l3485
  2199   00179A                     u3420:
  2200   00179A  0E00               	movlw	0
  2201   00179C  6E12               	movwf	___flmul@aexp^0,c
  2202   00179E  AE16               	btfss	(___flmul@grs+3)^0,7,c
  2203   0017A0  EFD4  F00B         	goto	u3431
  2204   0017A4  EFD6  F00B         	goto	u3430
  2205   0017A8                     u3431:
  2206   0017A8  EFFA  F00B         	goto	l1069
  2207   0017AC                     u3430:
  2208   0017AC  0EFF               	movlw	255
  2209   0017AE  1413               	andwf	___flmul@grs^0,w,c
  2210   0017B0  6E0D               	movwf	??___flmul^0,c
  2211   0017B2  0EFF               	movlw	255
  2212   0017B4  1414               	andwf	(___flmul@grs+1)^0,w,c
  2213   0017B6  6E0E               	movwf	(??___flmul+1)^0,c
  2214   0017B8  0EFF               	movlw	255
  2215   0017BA  1415               	andwf	(___flmul@grs+2)^0,w,c
  2216   0017BC  6E0F               	movwf	(??___flmul+2)^0,c
  2217   0017BE  0E7F               	movlw	127
  2218   0017C0  1416               	andwf	(___flmul@grs+3)^0,w,c
  2219   0017C2  6E10               	movwf	(??___flmul+3)^0,c
  2220   0017C4  500D               	movf	??___flmul^0,w,c
  2221   0017C6  100E               	iorwf	(??___flmul+1)^0,w,c
  2222   0017C8  100F               	iorwf	(??___flmul+2)^0,w,c
  2223   0017CA  1010               	iorwf	(??___flmul+3)^0,w,c
  2224   0017CC  B4D8               	btfsc	status,2,c
  2225   0017CE  EFEB  F00B         	goto	u3441
  2226   0017D2  EFED  F00B         	goto	u3440
  2227   0017D6                     u3441:
  2228   0017D6  EFF1  F00B         	goto	l1070
  2229   0017DA                     u3440:
  2230   0017DA                     l3499:
  2231   0017DA  0E01               	movlw	1
  2232   0017DC  6E12               	movwf	___flmul@aexp^0,c
  2233   0017DE  EFFA  F00B         	goto	l1069
  2234   0017E2                     l1070:
  2235   0017E2  A018               	btfss	___flmul@prod^0,0,c
  2236   0017E4  EFF6  F00B         	goto	u3451
  2237   0017E8  EFF8  F00B         	goto	u3450
  2238   0017EC                     u3451:
  2239   0017EC  EFFA  F00B         	goto	l1069
  2240   0017F0                     u3450:
  2241   0017F0  EFED  F00B         	goto	l3499
  2242   0017F4                     l1069:
  2243   0017F4  5012               	movf	___flmul@aexp^0,w,c
  2244   0017F6  B4D8               	btfsc	status,2,c
  2245   0017F8  EF00  F00C         	goto	u3461
  2246   0017FC  EF02  F00C         	goto	u3460
  2247   001800                     u3461:
  2248   001800  EF26  F00C         	goto	l3511
  2249   001804                     u3460:
  2250   001804  0E01               	movlw	1
  2251   001806  2618               	addwf	___flmul@prod^0,f,c
  2252   001808  0E00               	movlw	0
  2253   00180A  2219               	addwfc	(___flmul@prod+1)^0,f,c
  2254   00180C  221A               	addwfc	(___flmul@prod+2)^0,f,c
  2255   00180E  221B               	addwfc	(___flmul@prod+3)^0,f,c
  2256   001810  A01B               	btfss	(___flmul@prod+3)^0,0,c
  2257   001812  EF0D  F00C         	goto	u3471
  2258   001816  EF0F  F00C         	goto	u3470
  2259   00181A                     u3471:
  2260   00181A  EF26  F00C         	goto	l3511
  2261   00181E                     u3470:
  2262   00181E  C018  F00D         	movff	___flmul@prod,??___flmul
  2263   001822  C019  F00E         	movff	___flmul@prod+1,??___flmul+1
  2264   001826  C01A  F00F         	movff	___flmul@prod+2,??___flmul+2
  2265   00182A  C01B  F010         	movff	___flmul@prod+3,??___flmul+3
  2266   00182E  3410               	rlcf	(??___flmul+3)^0,w,c
  2267   001830  3210               	rrcf	(??___flmul+3)^0,f,c
  2268   001832  320F               	rrcf	(??___flmul+2)^0,f,c
  2269   001834  320E               	rrcf	(??___flmul+1)^0,f,c
  2270   001836  320D               	rrcf	??___flmul^0,f,c
  2271   001838  C00D  F018         	movff	??___flmul,___flmul@prod
  2272   00183C  C00E  F019         	movff	??___flmul+1,___flmul@prod+1
  2273   001840  C00F  F01A         	movff	??___flmul+2,___flmul@prod+2
  2274   001844  C010  F01B         	movff	??___flmul+3,___flmul@prod+3
  2275   001848  4A1C               	infsnz	___flmul@temp^0,f,c
  2276   00184A  2A1D               	incf	(___flmul@temp+1)^0,f,c
  2277   00184C                     l3511:
  2278   00184C  BE1D               	btfsc	(___flmul@temp+1)^0,7,c
  2279   00184E  EF31  F00C         	goto	u3481
  2280   001852  501D               	movf	(___flmul@temp+1)^0,w,c
  2281   001854  E108               	bnz	u3480
  2282   001856  281C               	incf	___flmul@temp^0,w,c
  2283   001858  A0D8               	btfss	status,0,c
  2284   00185A  EF31  F00C         	goto	u3481
  2285   00185E  EF33  F00C         	goto	u3480
  2286   001862                     u3481:
  2287   001862  EF3D  F00C         	goto	l3515
  2288   001866                     u3480:
  2289   001866  0E00               	movlw	0
  2290   001868  6E18               	movwf	___flmul@prod^0,c
  2291   00186A  0E00               	movlw	0
  2292   00186C  6E19               	movwf	(___flmul@prod+1)^0,c
  2293   00186E  0E80               	movlw	128
  2294   001870  6E1A               	movwf	(___flmul@prod+2)^0,c
  2295   001872  0E7F               	movlw	127
  2296   001874  6E1B               	movwf	(___flmul@prod+3)^0,c
  2297   001876  EF6B  F00C         	goto	l3527
  2298   00187A                     l3515:
  2299   00187A  BE1D               	btfsc	(___flmul@temp+1)^0,7,c
  2300   00187C  EF4A  F00C         	goto	u3490
  2301   001880  501D               	movf	(___flmul@temp+1)^0,w,c
  2302   001882  E106               	bnz	u3491
  2303   001884  041C               	decf	___flmul@temp^0,w,c
  2304   001886  B0D8               	btfsc	status,0,c
  2305   001888  EF48  F00C         	goto	u3491
  2306   00188C  EF4A  F00C         	goto	u3490
  2307   001890                     u3491:
  2308   001890  EF56  F00C         	goto	l1077
  2309   001894                     u3490:
  2310   001894  0E00               	movlw	0
  2311   001896  6E18               	movwf	___flmul@prod^0,c
  2312   001898  0E00               	movlw	0
  2313   00189A  6E19               	movwf	(___flmul@prod+1)^0,c
  2314   00189C  0E00               	movlw	0
  2315   00189E  6E1A               	movwf	(___flmul@prod+2)^0,c
  2316   0018A0  0E00               	movlw	0
  2317   0018A2  6E1B               	movwf	(___flmul@prod+3)^0,c
  2318   0018A4  0E00               	movlw	0
  2319   0018A6  6E11               	movwf	___flmul@sign^0,c
  2320   0018A8  EF6B  F00C         	goto	l3527
  2321   0018AC                     l1077:
  2322   0018AC  C01C  F017         	movff	___flmul@temp,___flmul@bexp
  2323   0018B0  0EFF               	movlw	255
  2324   0018B2  1618               	andwf	___flmul@prod^0,f,c
  2325   0018B4  0EFF               	movlw	255
  2326   0018B6  1619               	andwf	(___flmul@prod+1)^0,f,c
  2327   0018B8  0E7F               	movlw	127
  2328   0018BA  161A               	andwf	(___flmul@prod+2)^0,f,c
  2329   0018BC  0E00               	movlw	0
  2330   0018BE  161B               	andwf	(___flmul@prod+3)^0,f,c
  2331   0018C0  A017               	btfss	___flmul@bexp^0,0,c
  2332   0018C2  EF65  F00C         	goto	u3501
  2333   0018C6  EF67  F00C         	goto	u3500
  2334   0018CA                     u3501:
  2335   0018CA  EF68  F00C         	goto	l3525
  2336   0018CE                     u3500:
  2337   0018CE  8E1A               	bsf	(___flmul@prod+2)^0,7,c
  2338   0018D0                     l3525:
  2339   0018D0  90D8               	bcf	status,0,c
  2340   0018D2  3017               	rrcf	___flmul@bexp^0,w,c
  2341   0018D4  6E1B               	movwf	(___flmul@prod+3)^0,c
  2342   0018D6                     l3527:
  2343   0018D6  5011               	movf	___flmul@sign^0,w,c
  2344   0018D8  121B               	iorwf	(___flmul@prod+3)^0,f,c
  2345   0018DA  C018  F005         	movff	___flmul@prod,?___flmul
  2346   0018DE  C019  F006         	movff	___flmul@prod+1,?___flmul+1
  2347   0018E2  C01A  F007         	movff	___flmul@prod+2,?___flmul+2
  2348   0018E6  C01B  F008         	movff	___flmul@prod+3,?___flmul+3
  2349   0018EA                     l1064:
  2350   0018EA  0012               	return		;funcret
  2351   0018EC                     __end_of___flmul:
  2352                           	callstack 0
  2353                           
  2354 ;; *************** function ___fldiv *****************
  2355 ;; Defined at:
  2356 ;;		line 11 in file "C:\Program Files\Microchip\xc8\v2.45\pic\sources\c99\common\sprcdiv.c"
  2357 ;; Parameters:    Size  Location     Type
  2358 ;;  b               4    4[COMRAM] unsigned char 
  2359 ;;  a               4    8[COMRAM] unsigned char 
  2360 ;; Auto vars:     Size  Location     Type
  2361 ;;  grs             4   23[COMRAM] unsigned long 
  2362 ;;  rem             4   16[COMRAM] unsigned long 
  2363 ;;  new_exp         2   21[COMRAM] short 
  2364 ;;  aexp            1   28[COMRAM] unsigned char 
  2365 ;;  bexp            1   27[COMRAM] unsigned char 
  2366 ;;  sign            1   20[COMRAM] unsigned char 
  2367 ;; Return value:  Size  Location     Type
  2368 ;;                  4    4[COMRAM] unsigned char 
  2369 ;; Registers used:
  2370 ;;		wreg, status,2, status,0
  2371 ;; Tracked objects:
  2372 ;;		On entry : 0/0
  2373 ;;		On exit  : 0/0
  2374 ;;		Unchanged: 0/0
  2375 ;; Data sizes:     COMRAM   BANK0   BANK1   BANK2   BANK3   BANK4   BANK5   BANK6   BANK7   BANK8   BANK9  BANK10  BANK1
      +1  BANK12  BANK13  BANK14  BANK15
  2376 ;;      Params:         8       0       0       0       0       0       0       0       0       0       0       0       
      +0       0       0       0       0
  2377 ;;      Locals:        13       0       0       0       0       0       0       0       0       0       0       0       
      +0       0       0       0       0
  2378 ;;      Temps:          4       0       0       0       0       0       0       0       0       0       0       0       
      +0       0       0       0       0
  2379 ;;      Totals:        25       0       0       0       0       0       0       0       0       0       0       0       
      +0       0       0       0       0
  2380 ;;Total ram usage:       25 bytes
  2381 ;; Hardware stack levels used: 1
  2382 ;; Hardware stack levels required when called: 3
  2383 ;; This function calls:
  2384 ;;		Nothing
  2385 ;; This function is called by:
  2386 ;;		_StandardDev
  2387 ;;		_EMGServoVrednosti
  2388 ;; This function uses a non-reentrant model
  2389 ;;
  2390                           
  2391                           	psect	text8
  2392   001CC8                     __ptext8:
  2393                           	callstack 0
  2394   001CC8                     ___fldiv:
  2395                           	callstack 26
  2396   001CC8  5008               	movf	(___fldiv@b+3)^0,w,c
  2397   001CCA  0B80               	andlw	128
  2398   001CCC  6E15               	movwf	___fldiv@sign^0,c
  2399   001CCE  5008               	movf	(___fldiv@b+3)^0,w,c
  2400   001CD0  2408               	addwf	(___fldiv@b+3)^0,w,c
  2401   001CD2  6E1C               	movwf	___fldiv@bexp^0,c
  2402   001CD4  AE07               	btfss	(___fldiv@b+2)^0,7,c
  2403   001CD6  EF6F  F00E         	goto	u3091
  2404   001CDA  EF71  F00E         	goto	u3090
  2405   001CDE                     u3091:
  2406   001CDE  EF72  F00E         	goto	l3271
  2407   001CE2                     u3090:
  2408   001CE2  801C               	bsf	___fldiv@bexp^0,0,c
  2409   001CE4                     l3271:
  2410   001CE4  501C               	movf	___fldiv@bexp^0,w,c
  2411   001CE6  B4D8               	btfsc	status,2,c
  2412   001CE8  EF78  F00E         	goto	u3101
  2413   001CEC  EF7A  F00E         	goto	u3100
  2414   001CF0                     u3101:
  2415   001CF0  EF8F  F00E         	goto	l3281
  2416   001CF4                     u3100:
  2417   001CF4  281C               	incf	___fldiv@bexp^0,w,c
  2418   001CF6  A4D8               	btfss	status,2,c
  2419   001CF8  EF80  F00E         	goto	u3111
  2420   001CFC  EF82  F00E         	goto	u3110
  2421   001D00                     u3111:
  2422   001D00  EF8A  F00E         	goto	l3277
  2423   001D04                     u3110:
  2424   001D04  0E00               	movlw	0
  2425   001D06  6E05               	movwf	___fldiv@b^0,c
  2426   001D08  0E00               	movlw	0
  2427   001D0A  6E06               	movwf	(___fldiv@b+1)^0,c
  2428   001D0C  0E00               	movlw	0
  2429   001D0E  6E07               	movwf	(___fldiv@b+2)^0,c
  2430   001D10  0E00               	movlw	0
  2431   001D12  6E08               	movwf	(___fldiv@b+3)^0,c
  2432   001D14                     l3277:
  2433   001D14  8E07               	bsf	(___fldiv@b+2)^0,7,c
  2434   001D16  0E00               	movlw	0
  2435   001D18  6E08               	movwf	(___fldiv@b+3)^0,c
  2436   001D1A  EF97  F00E         	goto	l3283
  2437   001D1E                     l3281:
  2438   001D1E  0E00               	movlw	0
  2439   001D20  6E05               	movwf	___fldiv@b^0,c
  2440   001D22  0E00               	movlw	0
  2441   001D24  6E06               	movwf	(___fldiv@b+1)^0,c
  2442   001D26  0E00               	movlw	0
  2443   001D28  6E07               	movwf	(___fldiv@b+2)^0,c
  2444   001D2A  0E00               	movlw	0
  2445   001D2C  6E08               	movwf	(___fldiv@b+3)^0,c
  2446   001D2E                     l3283:
  2447   001D2E  500C               	movf	(___fldiv@a+3)^0,w,c
  2448   001D30  0B80               	andlw	128
  2449   001D32  1A15               	xorwf	___fldiv@sign^0,f,c
  2450   001D34  500C               	movf	(___fldiv@a+3)^0,w,c
  2451   001D36  240C               	addwf	(___fldiv@a+3)^0,w,c
  2452   001D38  6E1D               	movwf	___fldiv@aexp^0,c
  2453   001D3A  AE0B               	btfss	(___fldiv@a+2)^0,7,c
  2454   001D3C  EFA2  F00E         	goto	u3121
  2455   001D40  EFA4  F00E         	goto	u3120
  2456   001D44                     u3121:
  2457   001D44  EFA5  F00E         	goto	l3291
  2458   001D48                     u3120:
  2459   001D48  801D               	bsf	___fldiv@aexp^0,0,c
  2460   001D4A                     l3291:
  2461   001D4A  501D               	movf	___fldiv@aexp^0,w,c
  2462   001D4C  B4D8               	btfsc	status,2,c
  2463   001D4E  EFAB  F00E         	goto	u3131
  2464   001D52  EFAD  F00E         	goto	u3130
  2465   001D56                     u3131:
  2466   001D56  EFC2  F00E         	goto	l3301
  2467   001D5A                     u3130:
  2468   001D5A  281D               	incf	___fldiv@aexp^0,w,c
  2469   001D5C  A4D8               	btfss	status,2,c
  2470   001D5E  EFB3  F00E         	goto	u3141
  2471   001D62  EFB5  F00E         	goto	u3140
  2472   001D66                     u3141:
  2473   001D66  EFBD  F00E         	goto	l3297
  2474   001D6A                     u3140:
  2475   001D6A  0E00               	movlw	0
  2476   001D6C  6E09               	movwf	___fldiv@a^0,c
  2477   001D6E  0E00               	movlw	0
  2478   001D70  6E0A               	movwf	(___fldiv@a+1)^0,c
  2479   001D72  0E00               	movlw	0
  2480   001D74  6E0B               	movwf	(___fldiv@a+2)^0,c
  2481   001D76  0E00               	movlw	0
  2482   001D78  6E0C               	movwf	(___fldiv@a+3)^0,c
  2483   001D7A                     l3297:
  2484   001D7A  8E0B               	bsf	(___fldiv@a+2)^0,7,c
  2485   001D7C  0E00               	movlw	0
  2486   001D7E  6E0C               	movwf	(___fldiv@a+3)^0,c
  2487   001D80  EFCA  F00E         	goto	l3303
  2488   001D84                     l3301:
  2489   001D84  0E00               	movlw	0
  2490   001D86  6E09               	movwf	___fldiv@a^0,c
  2491   001D88  0E00               	movlw	0
  2492   001D8A  6E0A               	movwf	(___fldiv@a+1)^0,c
  2493   001D8C  0E00               	movlw	0
  2494   001D8E  6E0B               	movwf	(___fldiv@a+2)^0,c
  2495   001D90  0E00               	movlw	0
  2496   001D92  6E0C               	movwf	(___fldiv@a+3)^0,c
  2497   001D94                     l3303:
  2498   001D94  5009               	movf	___fldiv@a^0,w,c
  2499   001D96  100A               	iorwf	(___fldiv@a+1)^0,w,c
  2500   001D98  100B               	iorwf	(___fldiv@a+2)^0,w,c
  2501   001D9A  100C               	iorwf	(___fldiv@a+3)^0,w,c
  2502   001D9C  A4D8               	btfss	status,2,c
  2503   001D9E  EFD3  F00E         	goto	u3151
  2504   001DA2  EFD5  F00E         	goto	u3150
  2505   001DA6                     u3151:
  2506   001DA6  EFED  F00E         	goto	l3315
  2507   001DAA                     u3150:
  2508   001DAA  0E00               	movlw	0
  2509   001DAC  6E05               	movwf	___fldiv@b^0,c
  2510   001DAE  0E00               	movlw	0
  2511   001DB0  6E06               	movwf	(___fldiv@b+1)^0,c
  2512   001DB2  0E00               	movlw	0
  2513   001DB4  6E07               	movwf	(___fldiv@b+2)^0,c
  2514   001DB6  0E00               	movlw	0
  2515   001DB8  6E08               	movwf	(___fldiv@b+3)^0,c
  2516   001DBA  0E80               	movlw	128
  2517   001DBC  1207               	iorwf	(___fldiv@b+2)^0,f,c
  2518   001DBE  0E7F               	movlw	127
  2519   001DC0  1208               	iorwf	(___fldiv@b+3)^0,f,c
  2520   001DC2                     l3309:
  2521   001DC2  5015               	movf	___fldiv@sign^0,w,c
  2522   001DC4  1208               	iorwf	(___fldiv@b+3)^0,f,c
  2523   001DC6  C005  F005         	movff	___fldiv@b,?___fldiv
  2524   001DCA  C006  F006         	movff	___fldiv@b+1,?___fldiv+1
  2525   001DCE  C007  F007         	movff	___fldiv@b+2,?___fldiv+2
  2526   001DD2  C008  F008         	movff	___fldiv@b+3,?___fldiv+3
  2527   001DD6  EF30  F010         	goto	l1028
  2528   001DDA                     l3315:
  2529   001DDA  501C               	movf	___fldiv@bexp^0,w,c
  2530   001DDC  A4D8               	btfss	status,2,c
  2531   001DDE  EFF3  F00E         	goto	u3161
  2532   001DE2  EFF5  F00E         	goto	u3160
  2533   001DE6                     u3161:
  2534   001DE6  EFFF  F00E         	goto	l3323
  2535   001DEA                     u3160:
  2536   001DEA  0E00               	movlw	0
  2537   001DEC  6E05               	movwf	?___fldiv^0,c
  2538   001DEE  0E00               	movlw	0
  2539   001DF0  6E06               	movwf	(?___fldiv+1)^0,c
  2540   001DF2  0E00               	movlw	0
  2541   001DF4  6E07               	movwf	(?___fldiv+2)^0,c
  2542   001DF6  0E00               	movlw	0
  2543   001DF8  6E08               	movwf	(?___fldiv+3)^0,c
  2544   001DFA  EF30  F010         	goto	l1028
  2545   001DFE                     l3323:
  2546   001DFE  501D               	movf	___fldiv@aexp^0,w,c
  2547   001E00  C01C  F00D         	movff	___fldiv@bexp,??___fldiv
  2548   001E04  6A0E               	clrf	(??___fldiv+1)^0,c
  2549   001E06  5E0D               	subwf	??___fldiv^0,f,c
  2550   001E08  0E00               	movlw	0
  2551   001E0A  5A0E               	subwfb	(??___fldiv+1)^0,f,c
  2552   001E0C  0E7F               	movlw	127
  2553   001E0E  240D               	addwf	??___fldiv^0,w,c
  2554   001E10  6E16               	movwf	___fldiv@new_exp^0,c
  2555   001E12  0E00               	movlw	0
  2556   001E14  200E               	addwfc	(??___fldiv+1)^0,w,c
  2557   001E16  6E17               	movwf	(___fldiv@new_exp+1)^0,c
  2558   001E18  C005  F011         	movff	___fldiv@b,___fldiv@rem
  2559   001E1C  C006  F012         	movff	___fldiv@b+1,___fldiv@rem+1
  2560   001E20  C007  F013         	movff	___fldiv@b+2,___fldiv@rem+2
  2561   001E24  C008  F014         	movff	___fldiv@b+3,___fldiv@rem+3
  2562   001E28  0E00               	movlw	0
  2563   001E2A  6E05               	movwf	___fldiv@b^0,c
  2564   001E2C  0E00               	movlw	0
  2565   001E2E  6E06               	movwf	(___fldiv@b+1)^0,c
  2566   001E30  0E00               	movlw	0
  2567   001E32  6E07               	movwf	(___fldiv@b+2)^0,c
  2568   001E34  0E00               	movlw	0
  2569   001E36  6E08               	movwf	(___fldiv@b+3)^0,c
  2570   001E38  0E00               	movlw	0
  2571   001E3A  6E18               	movwf	___fldiv@grs^0,c
  2572   001E3C  0E00               	movlw	0
  2573   001E3E  6E19               	movwf	(___fldiv@grs+1)^0,c
  2574   001E40  0E00               	movlw	0
  2575   001E42  6E1A               	movwf	(___fldiv@grs+2)^0,c
  2576   001E44  0E00               	movlw	0
  2577   001E46  6E1B               	movwf	(___fldiv@grs+3)^0,c
  2578   001E48  0E00               	movlw	0
  2579   001E4A  6E1D               	movwf	___fldiv@aexp^0,c
  2580   001E4C  EF60  F00F         	goto	l1030
  2581   001E50                     l3333:
  2582   001E50  501D               	movf	___fldiv@aexp^0,w,c
  2583   001E52  B4D8               	btfsc	status,2,c
  2584   001E54  EF2E  F00F         	goto	u3171
  2585   001E58  EF30  F00F         	goto	u3170
  2586   001E5C                     u3171:
  2587   001E5C  EF47  F00F         	goto	l3341
  2588   001E60                     u3170:
  2589   001E60  90D8               	bcf	status,0,c
  2590   001E62  3611               	rlcf	___fldiv@rem^0,f,c
  2591   001E64  3612               	rlcf	(___fldiv@rem+1)^0,f,c
  2592   001E66  3613               	rlcf	(___fldiv@rem+2)^0,f,c
  2593   001E68  3614               	rlcf	(___fldiv@rem+3)^0,f,c
  2594   001E6A  90D8               	bcf	status,0,c
  2595   001E6C  3605               	rlcf	___fldiv@b^0,f,c
  2596   001E6E  3606               	rlcf	(___fldiv@b+1)^0,f,c
  2597   001E70  3607               	rlcf	(___fldiv@b+2)^0,f,c
  2598   001E72  3608               	rlcf	(___fldiv@b+3)^0,f,c
  2599   001E74  AE1B               	btfss	(___fldiv@grs+3)^0,7,c
  2600   001E76  EF3F  F00F         	goto	u3181
  2601   001E7A  EF41  F00F         	goto	u3180
  2602   001E7E                     u3181:
  2603   001E7E  EF42  F00F         	goto	l1033
  2604   001E82                     u3180:
  2605   001E82  8005               	bsf	___fldiv@b^0,0,c
  2606   001E84                     l1033:
  2607   001E84  90D8               	bcf	status,0,c
  2608   001E86  3618               	rlcf	___fldiv@grs^0,f,c
  2609   001E88  3619               	rlcf	(___fldiv@grs+1)^0,f,c
  2610   001E8A  361A               	rlcf	(___fldiv@grs+2)^0,f,c
  2611   001E8C  361B               	rlcf	(___fldiv@grs+3)^0,f,c
  2612   001E8E                     l3341:
  2613   001E8E  5009               	movf	___fldiv@a^0,w,c
  2614   001E90  5C11               	subwf	___fldiv@rem^0,w,c
  2615   001E92  500A               	movf	(___fldiv@a+1)^0,w,c
  2616   001E94  5812               	subwfb	(___fldiv@rem+1)^0,w,c
  2617   001E96  500B               	movf	(___fldiv@a+2)^0,w,c
  2618   001E98  5813               	subwfb	(___fldiv@rem+2)^0,w,c
  2619   001E9A  500C               	movf	(___fldiv@a+3)^0,w,c
  2620   001E9C  5814               	subwfb	(___fldiv@rem+3)^0,w,c
  2621   001E9E  A0D8               	btfss	status,0,c
  2622   001EA0  EF54  F00F         	goto	u3191
  2623   001EA4  EF56  F00F         	goto	u3190
  2624   001EA8                     u3191:
  2625   001EA8  EF5F  F00F         	goto	l3347
  2626   001EAC                     u3190:
  2627   001EAC  8C1B               	bsf	(___fldiv@grs+3)^0,6,c
  2628   001EAE  5009               	movf	___fldiv@a^0,w,c
  2629   001EB0  5E11               	subwf	___fldiv@rem^0,f,c
  2630   001EB2  500A               	movf	(___fldiv@a+1)^0,w,c
  2631   001EB4  5A12               	subwfb	(___fldiv@rem+1)^0,f,c
  2632   001EB6  500B               	movf	(___fldiv@a+2)^0,w,c
  2633   001EB8  5A13               	subwfb	(___fldiv@rem+2)^0,f,c
  2634   001EBA  500C               	movf	(___fldiv@a+3)^0,w,c
  2635   001EBC  5A14               	subwfb	(___fldiv@rem+3)^0,f,c
  2636   001EBE                     l3347:
  2637   001EBE  2A1D               	incf	___fldiv@aexp^0,f,c
  2638   001EC0                     l1030:
  2639   001EC0  0E19               	movlw	25
  2640   001EC2  641D               	cpfsgt	___fldiv@aexp^0,c
  2641   001EC4  EF66  F00F         	goto	u3201
  2642   001EC8  EF68  F00F         	goto	u3200
  2643   001ECC                     u3201:
  2644   001ECC  EF28  F00F         	goto	l3333
  2645   001ED0                     u3200:
  2646   001ED0  5011               	movf	___fldiv@rem^0,w,c
  2647   001ED2  1012               	iorwf	(___fldiv@rem+1)^0,w,c
  2648   001ED4  1013               	iorwf	(___fldiv@rem+2)^0,w,c
  2649   001ED6  1014               	iorwf	(___fldiv@rem+3)^0,w,c
  2650   001ED8  B4D8               	btfsc	status,2,c
  2651   001EDA  EF71  F00F         	goto	u3211
  2652   001EDE  EF73  F00F         	goto	u3210
  2653   001EE2                     u3211:
  2654   001EE2  EF8B  F00F         	goto	l3359
  2655   001EE6                     u3210:
  2656   001EE6  8018               	bsf	___fldiv@grs^0,0,c
  2657   001EE8  EF8B  F00F         	goto	l3359
  2658   001EEC                     l3353:
  2659   001EEC  90D8               	bcf	status,0,c
  2660   001EEE  3605               	rlcf	___fldiv@b^0,f,c
  2661   001EF0  3606               	rlcf	(___fldiv@b+1)^0,f,c
  2662   001EF2  3607               	rlcf	(___fldiv@b+2)^0,f,c
  2663   001EF4  3608               	rlcf	(___fldiv@b+3)^0,f,c
  2664   001EF6  AE1B               	btfss	(___fldiv@grs+3)^0,7,c
  2665   001EF8  EF80  F00F         	goto	u3221
  2666   001EFC  EF82  F00F         	goto	u3220
  2667   001F00                     u3221:
  2668   001F00  EF83  F00F         	goto	l1039
  2669   001F04                     u3220:
  2670   001F04  8005               	bsf	___fldiv@b^0,0,c
  2671   001F06                     l1039:
  2672   001F06  90D8               	bcf	status,0,c
  2673   001F08  3618               	rlcf	___fldiv@grs^0,f,c
  2674   001F0A  3619               	rlcf	(___fldiv@grs+1)^0,f,c
  2675   001F0C  361A               	rlcf	(___fldiv@grs+2)^0,f,c
  2676   001F0E  361B               	rlcf	(___fldiv@grs+3)^0,f,c
  2677   001F10  0616               	decf	___fldiv@new_exp^0,f,c
  2678   001F12  A0D8               	btfss	status,0,c
  2679   001F14  0617               	decf	(___fldiv@new_exp+1)^0,f,c
  2680   001F16                     l3359:
  2681   001F16  AE07               	btfss	(___fldiv@b+2)^0,7,c
  2682   001F18  EF90  F00F         	goto	u3231
  2683   001F1C  EF92  F00F         	goto	u3230
  2684   001F20                     u3231:
  2685   001F20  EF76  F00F         	goto	l3353
  2686   001F24                     u3230:
  2687   001F24  0E00               	movlw	0
  2688   001F26  6E1D               	movwf	___fldiv@aexp^0,c
  2689   001F28  AE1B               	btfss	(___fldiv@grs+3)^0,7,c
  2690   001F2A  EF99  F00F         	goto	u3241
  2691   001F2E  EF9B  F00F         	goto	u3240
  2692   001F32                     u3241:
  2693   001F32  EFBF  F00F         	goto	l1041
  2694   001F36                     u3240:
  2695   001F36  0EFF               	movlw	255
  2696   001F38  1418               	andwf	___fldiv@grs^0,w,c
  2697   001F3A  6E0D               	movwf	??___fldiv^0,c
  2698   001F3C  0EFF               	movlw	255
  2699   001F3E  1419               	andwf	(___fldiv@grs+1)^0,w,c
  2700   001F40  6E0E               	movwf	(??___fldiv+1)^0,c
  2701   001F42  0EFF               	movlw	255
  2702   001F44  141A               	andwf	(___fldiv@grs+2)^0,w,c
  2703   001F46  6E0F               	movwf	(??___fldiv+2)^0,c
  2704   001F48  0E7F               	movlw	127
  2705   001F4A  141B               	andwf	(___fldiv@grs+3)^0,w,c
  2706   001F4C  6E10               	movwf	(??___fldiv+3)^0,c
  2707   001F4E  500D               	movf	??___fldiv^0,w,c
  2708   001F50  100E               	iorwf	(??___fldiv+1)^0,w,c
  2709   001F52  100F               	iorwf	(??___fldiv+2)^0,w,c
  2710   001F54  1010               	iorwf	(??___fldiv+3)^0,w,c
  2711   001F56  B4D8               	btfsc	status,2,c
  2712   001F58  EFB0  F00F         	goto	u3251
  2713   001F5C  EFB2  F00F         	goto	u3250
  2714   001F60                     u3251:
  2715   001F60  EFB6  F00F         	goto	l1042
  2716   001F64                     u3250:
  2717   001F64                     l3367:
  2718   001F64  0E01               	movlw	1
  2719   001F66  6E1D               	movwf	___fldiv@aexp^0,c
  2720   001F68  EFBF  F00F         	goto	l1041
  2721   001F6C                     l1042:
  2722   001F6C  A005               	btfss	___fldiv@b^0,0,c
  2723   001F6E  EFBB  F00F         	goto	u3261
  2724   001F72  EFBD  F00F         	goto	u3260
  2725   001F76                     u3261:
  2726   001F76  EFBF  F00F         	goto	l1041
  2727   001F7A                     u3260:
  2728   001F7A  EFB2  F00F         	goto	l3367
  2729   001F7E                     l1041:
  2730   001F7E  501D               	movf	___fldiv@aexp^0,w,c
  2731   001F80  B4D8               	btfsc	status,2,c
  2732   001F82  EFC5  F00F         	goto	u3271
  2733   001F86  EFC7  F00F         	goto	u3270
  2734   001F8A                     u3271:
  2735   001F8A  EFEB  F00F         	goto	l3379
  2736   001F8E                     u3270:
  2737   001F8E  0E01               	movlw	1
  2738   001F90  2605               	addwf	___fldiv@b^0,f,c
  2739   001F92  0E00               	movlw	0
  2740   001F94  2206               	addwfc	(___fldiv@b+1)^0,f,c
  2741   001F96  2207               	addwfc	(___fldiv@b+2)^0,f,c
  2742   001F98  2208               	addwfc	(___fldiv@b+3)^0,f,c
  2743   001F9A  A008               	btfss	(___fldiv@b+3)^0,0,c
  2744   001F9C  EFD2  F00F         	goto	u3281
  2745   001FA0  EFD4  F00F         	goto	u3280
  2746   001FA4                     u3281:
  2747   001FA4  EFEB  F00F         	goto	l3379
  2748   001FA8                     u3280:
  2749   001FA8  C005  F00D         	movff	___fldiv@b,??___fldiv
  2750   001FAC  C006  F00E         	movff	___fldiv@b+1,??___fldiv+1
  2751   001FB0  C007  F00F         	movff	___fldiv@b+2,??___fldiv+2
  2752   001FB4  C008  F010         	movff	___fldiv@b+3,??___fldiv+3
  2753   001FB8  3410               	rlcf	(??___fldiv+3)^0,w,c
  2754   001FBA  3210               	rrcf	(??___fldiv+3)^0,f,c
  2755   001FBC  320F               	rrcf	(??___fldiv+2)^0,f,c
  2756   001FBE  320E               	rrcf	(??___fldiv+1)^0,f,c
  2757   001FC0  320D               	rrcf	??___fldiv^0,f,c
  2758   001FC2  C00D  F005         	movff	??___fldiv,___fldiv@b
  2759   001FC6  C00E  F006         	movff	??___fldiv+1,___fldiv@b+1
  2760   001FCA  C00F  F007         	movff	??___fldiv+2,___fldiv@b+2
  2761   001FCE  C010  F008         	movff	??___fldiv+3,___fldiv@b+3
  2762   001FD2  4A16               	infsnz	___fldiv@new_exp^0,f,c
  2763   001FD4  2A17               	incf	(___fldiv@new_exp+1)^0,f,c
  2764   001FD6                     l3379:
  2765   001FD6  BE17               	btfsc	(___fldiv@new_exp+1)^0,7,c
  2766   001FD8  EFF6  F00F         	goto	u3291
  2767   001FDC  5017               	movf	(___fldiv@new_exp+1)^0,w,c
  2768   001FDE  E108               	bnz	u3290
  2769   001FE0  2816               	incf	___fldiv@new_exp^0,w,c
  2770   001FE2  A0D8               	btfss	status,0,c
  2771   001FE4  EFF6  F00F         	goto	u3291
  2772   001FE8  EFF8  F00F         	goto	u3290
  2773   001FEC                     u3291:
  2774   001FEC  EF03  F010         	goto	l3383
  2775   001FF0                     u3290:
  2776   001FF0  0E00               	movlw	0
  2777   001FF2  6E17               	movwf	(___fldiv@new_exp+1)^0,c
  2778   001FF4  6816               	setf	___fldiv@new_exp^0,c
  2779   001FF6  0E00               	movlw	0
  2780   001FF8  6E05               	movwf	___fldiv@b^0,c
  2781   001FFA  0E00               	movlw	0
  2782   001FFC  6E06               	movwf	(___fldiv@b+1)^0,c
  2783   001FFE  0E00               	movlw	0
  2784   002000  6E07               	movwf	(___fldiv@b+2)^0,c
  2785   002002  0E00               	movlw	0
  2786   002004  6E08               	movwf	(___fldiv@b+3)^0,c
  2787   002006                     l3383:
  2788   002006  BE17               	btfsc	(___fldiv@new_exp+1)^0,7,c
  2789   002008  EF10  F010         	goto	u3300
  2790   00200C  5017               	movf	(___fldiv@new_exp+1)^0,w,c
  2791   00200E  E106               	bnz	u3301
  2792   002010  0416               	decf	___fldiv@new_exp^0,w,c
  2793   002012  B0D8               	btfsc	status,0,c
  2794   002014  EF0E  F010         	goto	u3301
  2795   002018  EF10  F010         	goto	u3300
  2796   00201C                     u3301:
  2797   00201C  EF1E  F010         	goto	l3387
  2798   002020                     u3300:
  2799   002020  0E00               	movlw	0
  2800   002022  6E17               	movwf	(___fldiv@new_exp+1)^0,c
  2801   002024  0E00               	movlw	0
  2802   002026  6E16               	movwf	___fldiv@new_exp^0,c
  2803   002028  0E00               	movlw	0
  2804   00202A  6E05               	movwf	___fldiv@b^0,c
  2805   00202C  0E00               	movlw	0
  2806   00202E  6E06               	movwf	(___fldiv@b+1)^0,c
  2807   002030  0E00               	movlw	0
  2808   002032  6E07               	movwf	(___fldiv@b+2)^0,c
  2809   002034  0E00               	movlw	0
  2810   002036  6E08               	movwf	(___fldiv@b+3)^0,c
  2811   002038  0E00               	movlw	0
  2812   00203A  6E15               	movwf	___fldiv@sign^0,c
  2813   00203C                     l3387:
  2814   00203C  C016  F01C         	movff	___fldiv@new_exp,___fldiv@bexp
  2815   002040  A01C               	btfss	___fldiv@bexp^0,0,c
  2816   002042  EF25  F010         	goto	u3311
  2817   002046  EF27  F010         	goto	u3310
  2818   00204A                     u3311:
  2819   00204A  EF2A  F010         	goto	l3393
  2820   00204E                     u3310:
  2821   00204E  8E07               	bsf	(___fldiv@b+2)^0,7,c
  2822   002050  EF2B  F010         	goto	l3395
  2823   002054                     l3393:
  2824   002054  9E07               	bcf	(___fldiv@b+2)^0,7,c
  2825   002056                     l3395:
  2826   002056  90D8               	bcf	status,0,c
  2827   002058  301C               	rrcf	___fldiv@bexp^0,w,c
  2828   00205A  6E08               	movwf	(___fldiv@b+3)^0,c
  2829   00205C  EFE1  F00E         	goto	l3309
  2830   002060                     l1028:
  2831   002060  0012               	return		;funcret
  2832   002062                     __end_of___fldiv:
  2833                           	callstack 0
  2834                           
  2835 ;; *************** function ___fladd *****************
  2836 ;; Defined at:
  2837 ;;		line 10 in file "C:\Program Files\Microchip\xc8\v2.45\pic\sources\c99\common\sprcadd.c"
  2838 ;; Parameters:    Size  Location     Type
  2839 ;;  b               4   29[COMRAM] unsigned char 
  2840 ;;  a               4   33[COMRAM] unsigned char 
  2841 ;; Auto vars:     Size  Location     Type
  2842 ;;  grs             1   44[COMRAM] unsigned char 
  2843 ;;  bexp            1   43[COMRAM] unsigned char 
  2844 ;;  aexp            1   42[COMRAM] unsigned char 
  2845 ;;  signs           1   41[COMRAM] unsigned char 
  2846 ;; Return value:  Size  Location     Type
  2847 ;;                  4   29[COMRAM] unsigned char 
  2848 ;; Registers used:
  2849 ;;		wreg, status,2, status,0
  2850 ;; Tracked objects:
  2851 ;;		On entry : 0/0
  2852 ;;		On exit  : 0/0
  2853 ;;		Unchanged: 0/0
  2854 ;; Data sizes:     COMRAM   BANK0   BANK1   BANK2   BANK3   BANK4   BANK5   BANK6   BANK7   BANK8   BANK9  BANK10  BANK1
      +1  BANK12  BANK13  BANK14  BANK15
  2855 ;;      Params:         8       0       0       0       0       0       0       0       0       0       0       0       
      +0       0       0       0       0
  2856 ;;      Locals:         4       0       0       0       0       0       0       0       0       0       0       0       
      +0       0       0       0       0
  2857 ;;      Temps:          4       0       0       0       0       0       0       0       0       0       0       0       
      +0       0       0       0       0
  2858 ;;      Totals:        16       0       0       0       0       0       0       0       0       0       0       0       
      +0       0       0       0       0
  2859 ;;Total ram usage:       16 bytes
  2860 ;; Hardware stack levels used: 1
  2861 ;; Hardware stack levels required when called: 3
  2862 ;; This function calls:
  2863 ;;		Nothing
  2864 ;; This function is called by:
  2865 ;;		_StandardDev
  2866 ;; This function uses a non-reentrant model
  2867 ;;
  2868                           
  2869                           	psect	text9
  2870   001002                     __ptext9:
  2871                           	callstack 0
  2872   001002                     ___fladd:
  2873                           	callstack 26
  2874   001002  5021               	movf	(___fladd@b+3)^0,w,c
  2875   001004  0B80               	andlw	128
  2876   001006  6E2A               	movwf	___fladd@signs^0,c
  2877   001008  5021               	movf	(___fladd@b+3)^0,w,c
  2878   00100A  2421               	addwf	(___fladd@b+3)^0,w,c
  2879   00100C  6E2C               	movwf	___fladd@bexp^0,c
  2880   00100E  AE20               	btfss	(___fladd@b+2)^0,7,c
  2881   001010  EF0C  F008         	goto	u2701
  2882   001014  EF0E  F008         	goto	u2700
  2883   001018                     u2701:
  2884   001018  EF0F  F008         	goto	l3069
  2885   00101C                     u2700:
  2886   00101C  802C               	bsf	___fladd@bexp^0,0,c
  2887   00101E                     l3069:
  2888   00101E  502C               	movf	___fladd@bexp^0,w,c
  2889   001020  B4D8               	btfsc	status,2,c
  2890   001022  EF15  F008         	goto	u2711
  2891   001026  EF17  F008         	goto	u2710
  2892   00102A                     u2711:
  2893   00102A  EF2C  F008         	goto	l3079
  2894   00102E                     u2710:
  2895   00102E  282C               	incf	___fladd@bexp^0,w,c
  2896   001030  A4D8               	btfss	status,2,c
  2897   001032  EF1D  F008         	goto	u2721
  2898   001036  EF1F  F008         	goto	u2720
  2899   00103A                     u2721:
  2900   00103A  EF27  F008         	goto	l3075
  2901   00103E                     u2720:
  2902   00103E  0E00               	movlw	0
  2903   001040  6E1E               	movwf	___fladd@b^0,c
  2904   001042  0E00               	movlw	0
  2905   001044  6E1F               	movwf	(___fladd@b+1)^0,c
  2906   001046  0E00               	movlw	0
  2907   001048  6E20               	movwf	(___fladd@b+2)^0,c
  2908   00104A  0E00               	movlw	0
  2909   00104C  6E21               	movwf	(___fladd@b+3)^0,c
  2910   00104E                     l3075:
  2911   00104E  8E20               	bsf	(___fladd@b+2)^0,7,c
  2912   001050  0E00               	movlw	0
  2913   001052  6E21               	movwf	(___fladd@b+3)^0,c
  2914   001054  EF34  F008         	goto	l3081
  2915   001058                     l3079:
  2916   001058  0E00               	movlw	0
  2917   00105A  6E1E               	movwf	___fladd@b^0,c
  2918   00105C  0E00               	movlw	0
  2919   00105E  6E1F               	movwf	(___fladd@b+1)^0,c
  2920   001060  0E00               	movlw	0
  2921   001062  6E20               	movwf	(___fladd@b+2)^0,c
  2922   001064  0E00               	movlw	0
  2923   001066  6E21               	movwf	(___fladd@b+3)^0,c
  2924   001068                     l3081:
  2925   001068  5025               	movf	(___fladd@a+3)^0,w,c
  2926   00106A  0B80               	andlw	128
  2927   00106C  6E2B               	movwf	___fladd@aexp^0,c
  2928   00106E  502A               	movf	___fladd@signs^0,w,c
  2929   001070  182B               	xorwf	___fladd@aexp^0,w,c
  2930   001072  B4D8               	btfsc	status,2,c
  2931   001074  EF3E  F008         	goto	u2731
  2932   001078  EF40  F008         	goto	u2730
  2933   00107C                     u2731:
  2934   00107C  EF41  F008         	goto	l3087
  2935   001080                     u2730:
  2936   001080  8C2A               	bsf	___fladd@signs^0,6,c
  2937   001082                     l3087:
  2938   001082  5025               	movf	(___fladd@a+3)^0,w,c
  2939   001084  2425               	addwf	(___fladd@a+3)^0,w,c
  2940   001086  6E2B               	movwf	___fladd@aexp^0,c
  2941   001088  AE24               	btfss	(___fladd@a+2)^0,7,c
  2942   00108A  EF49  F008         	goto	u2741
  2943   00108E  EF4B  F008         	goto	u2740
  2944   001092                     u2741:
  2945   001092  EF4C  F008         	goto	l3093
  2946   001096                     u2740:
  2947   001096  802B               	bsf	___fladd@aexp^0,0,c
  2948   001098                     l3093:
  2949   001098  502B               	movf	___fladd@aexp^0,w,c
  2950   00109A  B4D8               	btfsc	status,2,c
  2951   00109C  EF52  F008         	goto	u2751
  2952   0010A0  EF54  F008         	goto	u2750
  2953   0010A4                     u2751:
  2954   0010A4  EF69  F008         	goto	l3103
  2955   0010A8                     u2750:
  2956   0010A8  282B               	incf	___fladd@aexp^0,w,c
  2957   0010AA  A4D8               	btfss	status,2,c
  2958   0010AC  EF5A  F008         	goto	u2761
  2959   0010B0  EF5C  F008         	goto	u2760
  2960   0010B4                     u2761:
  2961   0010B4  EF64  F008         	goto	l3099
  2962   0010B8                     u2760:
  2963   0010B8  0E00               	movlw	0
  2964   0010BA  6E22               	movwf	___fladd@a^0,c
  2965   0010BC  0E00               	movlw	0
  2966   0010BE  6E23               	movwf	(___fladd@a+1)^0,c
  2967   0010C0  0E00               	movlw	0
  2968   0010C2  6E24               	movwf	(___fladd@a+2)^0,c
  2969   0010C4  0E00               	movlw	0
  2970   0010C6  6E25               	movwf	(___fladd@a+3)^0,c
  2971   0010C8                     l3099:
  2972   0010C8  8E24               	bsf	(___fladd@a+2)^0,7,c
  2973   0010CA  0E00               	movlw	0
  2974   0010CC  6E25               	movwf	(___fladd@a+3)^0,c
  2975   0010CE  EF71  F008         	goto	l3105
  2976   0010D2                     l3103:
  2977   0010D2  0E00               	movlw	0
  2978   0010D4  6E22               	movwf	___fladd@a^0,c
  2979   0010D6  0E00               	movlw	0
  2980   0010D8  6E23               	movwf	(___fladd@a+1)^0,c
  2981   0010DA  0E00               	movlw	0
  2982   0010DC  6E24               	movwf	(___fladd@a+2)^0,c
  2983   0010DE  0E00               	movlw	0
  2984   0010E0  6E25               	movwf	(___fladd@a+3)^0,c
  2985   0010E2                     l3105:
  2986   0010E2  502C               	movf	___fladd@bexp^0,w,c
  2987   0010E4  5C2B               	subwf	___fladd@aexp^0,w,c
  2988   0010E6  B0D8               	btfsc	status,0,c
  2989   0010E8  EF78  F008         	goto	u2771
  2990   0010EC  EF7A  F008         	goto	u2770
  2991   0010F0                     u2771:
  2992   0010F0  EFA1  F008         	goto	l3141
  2993   0010F4                     u2770:
  2994   0010F4  AC2A               	btfss	___fladd@signs^0,6,c
  2995   0010F6  EF7F  F008         	goto	u2781
  2996   0010FA  EF81  F008         	goto	u2780
  2997   0010FE                     u2781:
  2998   0010FE  EF83  F008         	goto	l3111
  2999   001102                     u2780:
  3000   001102  0E80               	movlw	128
  3001   001104  1A2A               	xorwf	___fladd@signs^0,f,c
  3002   001106                     l3111:
  3003   001106  C02C  F02D         	movff	___fladd@bexp,___fladd@grs
  3004   00110A  C02B  F02C         	movff	___fladd@aexp,___fladd@bexp
  3005   00110E  C02D  F02B         	movff	___fladd@grs,___fladd@aexp
  3006   001112  C01E  F02D         	movff	___fladd@b,___fladd@grs
  3007   001116  C022  F01E         	movff	___fladd@a,___fladd@b
  3008   00111A  C02D  F022         	movff	___fladd@grs,___fladd@a
  3009   00111E  C01F  F02D         	movff	___fladd@b+1,___fladd@grs
  3010   001122  C023  F01F         	movff	___fladd@a+1,___fladd@b+1
  3011   001126  C02D  F023         	movff	___fladd@grs,___fladd@a+1
  3012   00112A  C020  F02D         	movff	___fladd@b+2,___fladd@grs
  3013   00112E  C024  F020         	movff	___fladd@a+2,___fladd@b+2
  3014   001132  C02D  F024         	movff	___fladd@grs,___fladd@a+2
  3015   001136  C021  F02D         	movff	___fladd@b+3,___fladd@grs
  3016   00113A  C025  F021         	movff	___fladd@a+3,___fladd@b+3
  3017   00113E  C02D  F025         	movff	___fladd@grs,___fladd@a+3
  3018   001142                     l3141:
  3019   001142  0E00               	movlw	0
  3020   001144  6E2D               	movwf	___fladd@grs^0,c
  3021   001146  502C               	movf	___fladd@bexp^0,w,c
  3022   001148  C02B  F026         	movff	___fladd@aexp,??___fladd
  3023   00114C  6A27               	clrf	(??___fladd+1)^0,c
  3024   00114E  5E26               	subwf	??___fladd^0,f,c
  3025   001150  0E00               	movlw	0
  3026   001152  5A27               	subwfb	(??___fladd+1)^0,f,c
  3027   001154  BE27               	btfsc	(??___fladd+1)^0,7,c
  3028   001156  EFB6  F008         	goto	u2791
  3029   00115A  5027               	movf	(??___fladd+1)^0,w,c
  3030   00115C  E109               	bnz	u2790
  3031   00115E  0E1A               	movlw	26
  3032   001160  5C26               	subwf	??___fladd^0,w,c
  3033   001162  A0D8               	btfss	status,0,c
  3034   001164  EFB6  F008         	goto	u2791
  3035   001168  EFB8  F008         	goto	u2790
  3036   00116C                     u2791:
  3037   00116C  EFEF  F008         	goto	l975
  3038   001170                     u2790:
  3039   001170  501E               	movf	___fladd@b^0,w,c
  3040   001172  101F               	iorwf	(___fladd@b+1)^0,w,c
  3041   001174  1020               	iorwf	(___fladd@b+2)^0,w,c
  3042   001176  1021               	iorwf	(___fladd@b+3)^0,w,c
  3043   001178  A4D8               	btfss	status,2,c
  3044   00117A  EFC1  F008         	goto	u2801
  3045   00117E  EFC4  F008         	goto	u2800
  3046   001182                     u2801:
  3047   001182  0E01               	movlw	1
  3048   001184  EFC5  F008         	goto	u2810
  3049   001188                     u2800:
  3050   001188  0E00               	movlw	0
  3051   00118A                     u2810:
  3052   00118A  6E2D               	movwf	___fladd@grs^0,c
  3053   00118C  0E00               	movlw	0
  3054   00118E  6E1E               	movwf	___fladd@b^0,c
  3055   001190  0E00               	movlw	0
  3056   001192  6E1F               	movwf	(___fladd@b+1)^0,c
  3057   001194  0E00               	movlw	0
  3058   001196  6E20               	movwf	(___fladd@b+2)^0,c
  3059   001198  0E00               	movlw	0
  3060   00119A  6E21               	movwf	(___fladd@b+3)^0,c
  3061   00119C  C02B  F02C         	movff	___fladd@aexp,___fladd@bexp
  3062   0011A0  EFF8  F008         	goto	l974
  3063   0011A4                     l976:
  3064   0011A4  A02D               	btfss	___fladd@grs^0,0,c
  3065   0011A6  EFD7  F008         	goto	u2821
  3066   0011AA  EFD9  F008         	goto	u2820
  3067   0011AE                     u2821:
  3068   0011AE  EFDF  F008         	goto	l3153
  3069   0011B2                     u2820:
  3070   0011B2  90D8               	bcf	status,0,c
  3071   0011B4  302D               	rrcf	___fladd@grs^0,w,c
  3072   0011B6  0901               	iorlw	1
  3073   0011B8  6E2D               	movwf	___fladd@grs^0,c
  3074   0011BA  EFE1  F008         	goto	l3155
  3075   0011BE                     l3153:
  3076   0011BE  90D8               	bcf	status,0,c
  3077   0011C0  322D               	rrcf	___fladd@grs^0,f,c
  3078   0011C2                     l3155:
  3079   0011C2  A01E               	btfss	___fladd@b^0,0,c
  3080   0011C4  EFE6  F008         	goto	u2831
  3081   0011C8  EFE8  F008         	goto	u2830
  3082   0011CC                     u2831:
  3083   0011CC  EFE9  F008         	goto	l3159
  3084   0011D0                     u2830:
  3085   0011D0  8E2D               	bsf	___fladd@grs^0,7,c
  3086   0011D2                     l3159:
  3087   0011D2  3421               	rlcf	(___fladd@b+3)^0,w,c
  3088   0011D4  3221               	rrcf	(___fladd@b+3)^0,f,c
  3089   0011D6  3220               	rrcf	(___fladd@b+2)^0,f,c
  3090   0011D8  321F               	rrcf	(___fladd@b+1)^0,f,c
  3091   0011DA  321E               	rrcf	___fladd@b^0,f,c
  3092   0011DC  2A2C               	incf	___fladd@bexp^0,f,c
  3093   0011DE                     l975:
  3094   0011DE  502B               	movf	___fladd@aexp^0,w,c
  3095   0011E0  5C2C               	subwf	___fladd@bexp^0,w,c
  3096   0011E2  A0D8               	btfss	status,0,c
  3097   0011E4  EFF6  F008         	goto	u2841
  3098   0011E8  EFF8  F008         	goto	u2840
  3099   0011EC                     u2841:
  3100   0011EC  EFD2  F008         	goto	l976
  3101   0011F0                     u2840:
  3102   0011F0                     l974:
  3103   0011F0  BC2A               	btfsc	___fladd@signs^0,6,c
  3104   0011F2  EFFD  F008         	goto	u2851
  3105   0011F6  EFFF  F008         	goto	u2850
  3106   0011FA                     u2851:
  3107   0011FA  EF3F  F009         	goto	l3187
  3108   0011FE                     u2850:
  3109   0011FE  502C               	movf	___fladd@bexp^0,w,c
  3110   001200  A4D8               	btfss	status,2,c
  3111   001202  EF05  F009         	goto	u2861
  3112   001206  EF07  F009         	goto	u2860
  3113   00120A                     u2861:
  3114   00120A  EF11  F009         	goto	l3169
  3115   00120E                     u2860:
  3116   00120E  0E00               	movlw	0
  3117   001210  6E1E               	movwf	?___fladd^0,c
  3118   001212  0E00               	movlw	0
  3119   001214  6E1F               	movwf	(?___fladd+1)^0,c
  3120   001216  0E00               	movlw	0
  3121   001218  6E20               	movwf	(?___fladd+2)^0,c
  3122   00121A  0E00               	movlw	0
  3123   00121C  6E21               	movwf	(?___fladd+3)^0,c
  3124   00121E  EF60  F00A         	goto	l983
  3125   001222                     l3169:
  3126   001222  5022               	movf	___fladd@a^0,w,c
  3127   001224  261E               	addwf	___fladd@b^0,f,c
  3128   001226  5023               	movf	(___fladd@a+1)^0,w,c
  3129   001228  221F               	addwfc	(___fladd@b+1)^0,f,c
  3130   00122A  5024               	movf	(___fladd@a+2)^0,w,c
  3131   00122C  2220               	addwfc	(___fladd@b+2)^0,f,c
  3132   00122E  5025               	movf	(___fladd@a+3)^0,w,c
  3133   001230  2221               	addwfc	(___fladd@b+3)^0,f,c
  3134   001232  A021               	btfss	(___fladd@b+3)^0,0,c
  3135   001234  EF1E  F009         	goto	u2871
  3136   001238  EF20  F009         	goto	u2870
  3137   00123C                     u2871:
  3138   00123C  EFCC  F009         	goto	l3223
  3139   001240                     u2870:
  3140   001240  A02D               	btfss	___fladd@grs^0,0,c
  3141   001242  EF25  F009         	goto	u2881
  3142   001246  EF27  F009         	goto	u2880
  3143   00124A                     u2881:
  3144   00124A  EF2D  F009         	goto	l3177
  3145   00124E                     u2880:
  3146   00124E  90D8               	bcf	status,0,c
  3147   001250  302D               	rrcf	___fladd@grs^0,w,c
  3148   001252  0901               	iorlw	1
  3149   001254  6E2D               	movwf	___fladd@grs^0,c
  3150   001256  EF2F  F009         	goto	l3179
  3151   00125A                     l3177:
  3152   00125A  90D8               	bcf	status,0,c
  3153   00125C  322D               	rrcf	___fladd@grs^0,f,c
  3154   00125E                     l3179:
  3155   00125E  A01E               	btfss	___fladd@b^0,0,c
  3156   001260  EF34  F009         	goto	u2891
  3157   001264  EF36  F009         	goto	u2890
  3158   001268                     u2891:
  3159   001268  EF37  F009         	goto	l3183
  3160   00126C                     u2890:
  3161   00126C  8E2D               	bsf	___fladd@grs^0,7,c
  3162   00126E                     l3183:
  3163   00126E  3421               	rlcf	(___fladd@b+3)^0,w,c
  3164   001270  3221               	rrcf	(___fladd@b+3)^0,f,c
  3165   001272  3220               	rrcf	(___fladd@b+2)^0,f,c
  3166   001274  321F               	rrcf	(___fladd@b+1)^0,f,c
  3167   001276  321E               	rrcf	___fladd@b^0,f,c
  3168   001278  2A2C               	incf	___fladd@bexp^0,f,c
  3169   00127A  EFCC  F009         	goto	l3223
  3170   00127E                     l3187:
  3171   00127E  5022               	movf	___fladd@a^0,w,c
  3172   001280  5C1E               	subwf	___fladd@b^0,w,c
  3173   001282  5023               	movf	(___fladd@a+1)^0,w,c
  3174   001284  581F               	subwfb	(___fladd@b+1)^0,w,c
  3175   001286  5024               	movf	(___fladd@a+2)^0,w,c
  3176   001288  5820               	subwfb	(___fladd@b+2)^0,w,c
  3177   00128A  5021               	movf	(___fladd@b+3)^0,w,c
  3178   00128C  0A80               	xorlw	128
  3179   00128E  6E26               	movwf	??___fladd^0,c
  3180   001290  5025               	movf	(___fladd@a+3)^0,w,c
  3181   001292  0A80               	xorlw	128
  3182   001294  5826               	subwfb	??___fladd^0,w,c
  3183   001296  B0D8               	btfsc	status,0,c
  3184   001298  EF50  F009         	goto	u2901
  3185   00129C  EF52  F009         	goto	u2900
  3186   0012A0                     u2901:
  3187   0012A0  EF7D  F009         	goto	l3197
  3188   0012A4                     u2900:
  3189   0012A4  501E               	movf	___fladd@b^0,w,c
  3190   0012A6  5C22               	subwf	___fladd@a^0,w,c
  3191   0012A8  6E26               	movwf	??___fladd^0,c
  3192   0012AA  501F               	movf	(___fladd@b+1)^0,w,c
  3193   0012AC  5823               	subwfb	(___fladd@a+1)^0,w,c
  3194   0012AE  6E27               	movwf	(??___fladd+1)^0,c
  3195   0012B0  5020               	movf	(___fladd@b+2)^0,w,c
  3196   0012B2  5824               	subwfb	(___fladd@a+2)^0,w,c
  3197   0012B4  6E28               	movwf	(??___fladd+2)^0,c
  3198   0012B6  5021               	movf	(___fladd@b+3)^0,w,c
  3199   0012B8  5825               	subwfb	(___fladd@a+3)^0,w,c
  3200   0012BA  6E29               	movwf	(??___fladd+3)^0,c
  3201   0012BC  0EFF               	movlw	255
  3202   0012BE  2426               	addwf	??___fladd^0,w,c
  3203   0012C0  6E1E               	movwf	___fladd@b^0,c
  3204   0012C2  0EFF               	movlw	255
  3205   0012C4  2027               	addwfc	(??___fladd+1)^0,w,c
  3206   0012C6  6E1F               	movwf	(___fladd@b+1)^0,c
  3207   0012C8  0EFF               	movlw	255
  3208   0012CA  2028               	addwfc	(??___fladd+2)^0,w,c
  3209   0012CC  6E20               	movwf	(___fladd@b+2)^0,c
  3210   0012CE  0EFF               	movlw	255
  3211   0012D0  2029               	addwfc	(??___fladd+3)^0,w,c
  3212   0012D2  6E21               	movwf	(___fladd@b+3)^0,c
  3213   0012D4  0E80               	movlw	128
  3214   0012D6  1A2A               	xorwf	___fladd@signs^0,f,c
  3215   0012D8  6C2D               	negf	___fladd@grs^0,c
  3216   0012DA  502D               	movf	___fladd@grs^0,w,c
  3217   0012DC  A4D8               	btfss	status,2,c
  3218   0012DE  EF73  F009         	goto	u2911
  3219   0012E2  EF75  F009         	goto	u2910
  3220   0012E6                     u2911:
  3221   0012E6  EF85  F009         	goto	l991
  3222   0012EA                     u2910:
  3223   0012EA  0E01               	movlw	1
  3224   0012EC  261E               	addwf	___fladd@b^0,f,c
  3225   0012EE  0E00               	movlw	0
  3226   0012F0  221F               	addwfc	(___fladd@b+1)^0,f,c
  3227   0012F2  2220               	addwfc	(___fladd@b+2)^0,f,c
  3228   0012F4  2221               	addwfc	(___fladd@b+3)^0,f,c
  3229   0012F6  EF85  F009         	goto	l991
  3230   0012FA                     l3197:
  3231   0012FA  5022               	movf	___fladd@a^0,w,c
  3232   0012FC  5E1E               	subwf	___fladd@b^0,f,c
  3233   0012FE  5023               	movf	(___fladd@a+1)^0,w,c
  3234   001300  5A1F               	subwfb	(___fladd@b+1)^0,f,c
  3235   001302  5024               	movf	(___fladd@a+2)^0,w,c
  3236   001304  5A20               	subwfb	(___fladd@b+2)^0,f,c
  3237   001306  5025               	movf	(___fladd@a+3)^0,w,c
  3238   001308  5A21               	subwfb	(___fladd@b+3)^0,f,c
  3239   00130A                     l991:
  3240   00130A  501E               	movf	___fladd@b^0,w,c
  3241   00130C  101F               	iorwf	(___fladd@b+1)^0,w,c
  3242   00130E  1020               	iorwf	(___fladd@b+2)^0,w,c
  3243   001310  1021               	iorwf	(___fladd@b+3)^0,w,c
  3244   001312  A4D8               	btfss	status,2,c
  3245   001314  EF8E  F009         	goto	u2921
  3246   001318  EF90  F009         	goto	u2920
  3247   00131C                     u2921:
  3248   00131C  EFC5  F009         	goto	l3221
  3249   001320                     u2920:
  3250   001320  502D               	movf	___fladd@grs^0,w,c
  3251   001322  A4D8               	btfss	status,2,c
  3252   001324  EF96  F009         	goto	u2931
  3253   001328  EF98  F009         	goto	u2930
  3254   00132C                     u2931:
  3255   00132C  EFC5  F009         	goto	l3221
  3256   001330                     u2930:
  3257   001330  0E00               	movlw	0
  3258   001332  6E1E               	movwf	?___fladd^0,c
  3259   001334  0E00               	movlw	0
  3260   001336  6E1F               	movwf	(?___fladd+1)^0,c
  3261   001338  0E00               	movlw	0
  3262   00133A  6E20               	movwf	(?___fladd+2)^0,c
  3263   00133C  0E00               	movlw	0
  3264   00133E  6E21               	movwf	(?___fladd+3)^0,c
  3265   001340  EF60  F00A         	goto	l983
  3266   001344                     l3205:
  3267   001344  90D8               	bcf	status,0,c
  3268   001346  361E               	rlcf	___fladd@b^0,f,c
  3269   001348  361F               	rlcf	(___fladd@b+1)^0,f,c
  3270   00134A  3620               	rlcf	(___fladd@b+2)^0,f,c
  3271   00134C  3621               	rlcf	(___fladd@b+3)^0,f,c
  3272   00134E  AE2D               	btfss	___fladd@grs^0,7,c
  3273   001350  EFAC  F009         	goto	u2941
  3274   001354  EFAE  F009         	goto	u2940
  3275   001358                     u2941:
  3276   001358  EFAF  F009         	goto	l3211
  3277   00135C                     u2940:
  3278   00135C  801E               	bsf	___fladd@b^0,0,c
  3279   00135E                     l3211:
  3280   00135E  A02D               	btfss	___fladd@grs^0,0,c
  3281   001360  EFB4  F009         	goto	u2951
  3282   001364  EFB6  F009         	goto	u2950
  3283   001368                     u2951:
  3284   001368  EFBA  F009         	goto	l3215
  3285   00136C                     u2950:
  3286   00136C  80D8               	bsf	status,0,c
  3287   00136E  362D               	rlcf	___fladd@grs^0,f,c
  3288   001370  EFBC  F009         	goto	l3217
  3289   001374                     l3215:
  3290   001374  90D8               	bcf	status,0,c
  3291   001376  362D               	rlcf	___fladd@grs^0,f,c
  3292   001378                     l3217:
  3293   001378  502C               	movf	___fladd@bexp^0,w,c
  3294   00137A  B4D8               	btfsc	status,2,c
  3295   00137C  EFC2  F009         	goto	u2961
  3296   001380  EFC4  F009         	goto	u2960
  3297   001384                     u2961:
  3298   001384  EFC5  F009         	goto	l3221
  3299   001388                     u2960:
  3300   001388  062C               	decf	___fladd@bexp^0,f,c
  3301   00138A                     l3221:
  3302   00138A  AE20               	btfss	(___fladd@b+2)^0,7,c
  3303   00138C  EFCA  F009         	goto	u2971
  3304   001390  EFCC  F009         	goto	u2970
  3305   001394                     u2971:
  3306   001394  EFA2  F009         	goto	l3205
  3307   001398                     u2970:
  3308   001398                     l3223:
  3309   001398  0E00               	movlw	0
  3310   00139A  6E2B               	movwf	___fladd@aexp^0,c
  3311   00139C  AE2D               	btfss	___fladd@grs^0,7,c
  3312   00139E  EFD3  F009         	goto	u2981
  3313   0013A2  EFD5  F009         	goto	u2980
  3314   0013A6                     u2981:
  3315   0013A6  EFED  F009         	goto	l1000
  3316   0013AA                     u2980:
  3317   0013AA  C02D  F026         	movff	___fladd@grs,??___fladd
  3318   0013AE  0E7F               	movlw	127
  3319   0013B0  1626               	andwf	??___fladd^0,f,c
  3320   0013B2  B4D8               	btfsc	status,2,c
  3321   0013B4  EFDE  F009         	goto	u2991
  3322   0013B8  EFE0  F009         	goto	u2990
  3323   0013BC                     u2991:
  3324   0013BC  EFE4  F009         	goto	l1001
  3325   0013C0                     u2990:
  3326   0013C0                     l3229:
  3327   0013C0  0E01               	movlw	1
  3328   0013C2  6E2B               	movwf	___fladd@aexp^0,c
  3329   0013C4  EFED  F009         	goto	l1000
  3330   0013C8                     l1001:
  3331   0013C8  A01E               	btfss	___fladd@b^0,0,c
  3332   0013CA  EFE9  F009         	goto	u3001
  3333   0013CE  EFEB  F009         	goto	u3000
  3334   0013D2                     u3001:
  3335   0013D2  EFED  F009         	goto	l1000
  3336   0013D6                     u3000:
  3337   0013D6  EFE0  F009         	goto	l3229
  3338   0013DA                     l1000:
  3339   0013DA  502B               	movf	___fladd@aexp^0,w,c
  3340   0013DC  B4D8               	btfsc	status,2,c
  3341   0013DE  EFF3  F009         	goto	u3011
  3342   0013E2  EFF5  F009         	goto	u3010
  3343   0013E6                     u3011:
  3344   0013E6  EF20  F00A         	goto	l3241
  3345   0013EA                     u3010:
  3346   0013EA  0E01               	movlw	1
  3347   0013EC  261E               	addwf	___fladd@b^0,f,c
  3348   0013EE  0E00               	movlw	0
  3349   0013F0  221F               	addwfc	(___fladd@b+1)^0,f,c
  3350   0013F2  2220               	addwfc	(___fladd@b+2)^0,f,c
  3351   0013F4  2221               	addwfc	(___fladd@b+3)^0,f,c
  3352   0013F6  A021               	btfss	(___fladd@b+3)^0,0,c
  3353   0013F8  EF00  F00A         	goto	u3021
  3354   0013FC  EF02  F00A         	goto	u3020
  3355   001400                     u3021:
  3356   001400  EF20  F00A         	goto	l3241
  3357   001404                     u3020:
  3358   001404  C01E  F026         	movff	___fladd@b,??___fladd
  3359   001408  C01F  F027         	movff	___fladd@b+1,??___fladd+1
  3360   00140C  C020  F028         	movff	___fladd@b+2,??___fladd+2
  3361   001410  C021  F029         	movff	___fladd@b+3,??___fladd+3
  3362   001414  3429               	rlcf	(??___fladd+3)^0,w,c
  3363   001416  3229               	rrcf	(??___fladd+3)^0,f,c
  3364   001418  3228               	rrcf	(??___fladd+2)^0,f,c
  3365   00141A  3227               	rrcf	(??___fladd+1)^0,f,c
  3366   00141C  3226               	rrcf	??___fladd^0,f,c
  3367   00141E  C026  F01E         	movff	??___fladd,___fladd@b
  3368   001422  C027  F01F         	movff	??___fladd+1,___fladd@b+1
  3369   001426  C028  F020         	movff	??___fladd+2,___fladd@b+2
  3370   00142A  C029  F021         	movff	??___fladd+3,___fladd@b+3
  3371   00142E  282C               	incf	___fladd@bexp^0,w,c
  3372   001430  B4D8               	btfsc	status,2,c
  3373   001432  EF1D  F00A         	goto	u3031
  3374   001436  EF1F  F00A         	goto	u3030
  3375   00143A                     u3031:
  3376   00143A  EF20  F00A         	goto	l3241
  3377   00143E                     u3030:
  3378   00143E  2A2C               	incf	___fladd@bexp^0,f,c
  3379   001440                     l3241:
  3380   001440  282C               	incf	___fladd@bexp^0,w,c
  3381   001442  B4D8               	btfsc	status,2,c
  3382   001444  EF26  F00A         	goto	u3041
  3383   001448  EF28  F00A         	goto	u3040
  3384   00144C                     u3041:
  3385   00144C  EF30  F00A         	goto	l3245
  3386   001450                     u3040:
  3387   001450  502C               	movf	___fladd@bexp^0,w,c
  3388   001452  A4D8               	btfss	status,2,c
  3389   001454  EF2E  F00A         	goto	u3051
  3390   001458  EF30  F00A         	goto	u3050
  3391   00145C                     u3051:
  3392   00145C  EF42  F00A         	goto	l3249
  3393   001460                     u3050:
  3394   001460                     l3245:
  3395   001460  0E00               	movlw	0
  3396   001462  6E1E               	movwf	___fladd@b^0,c
  3397   001464  0E00               	movlw	0
  3398   001466  6E1F               	movwf	(___fladd@b+1)^0,c
  3399   001468  0E00               	movlw	0
  3400   00146A  6E20               	movwf	(___fladd@b+2)^0,c
  3401   00146C  0E00               	movlw	0
  3402   00146E  6E21               	movwf	(___fladd@b+3)^0,c
  3403   001470  502C               	movf	___fladd@bexp^0,w,c
  3404   001472  A4D8               	btfss	status,2,c
  3405   001474  EF3E  F00A         	goto	u3061
  3406   001478  EF40  F00A         	goto	u3060
  3407   00147C                     u3061:
  3408   00147C  EF42  F00A         	goto	l3249
  3409   001480                     u3060:
  3410   001480  0E00               	movlw	0
  3411   001482  6E2A               	movwf	___fladd@signs^0,c
  3412   001484                     l3249:
  3413   001484  A02C               	btfss	___fladd@bexp^0,0,c
  3414   001486  EF47  F00A         	goto	u3071
  3415   00148A  EF49  F00A         	goto	u3070
  3416   00148E                     u3071:
  3417   00148E  EF4C  F00A         	goto	l3253
  3418   001492                     u3070:
  3419   001492  8E20               	bsf	(___fladd@b+2)^0,7,c
  3420   001494  EF4D  F00A         	goto	l3255
  3421   001498                     l3253:
  3422   001498  9E20               	bcf	(___fladd@b+2)^0,7,c
  3423   00149A                     l3255:
  3424   00149A  90D8               	bcf	status,0,c
  3425   00149C  302C               	rrcf	___fladd@bexp^0,w,c
  3426   00149E  6E21               	movwf	(___fladd@b+3)^0,c
  3427   0014A0  AE2A               	btfss	___fladd@signs^0,7,c
  3428   0014A2  EF55  F00A         	goto	u3081
  3429   0014A6  EF57  F00A         	goto	u3080
  3430   0014AA                     u3081:
  3431   0014AA  EF58  F00A         	goto	l3261
  3432   0014AE                     u3080:
  3433   0014AE  8E21               	bsf	(___fladd@b+3)^0,7,c
  3434   0014B0                     l3261:
  3435   0014B0  C01E  F01E         	movff	___fladd@b,?___fladd
  3436   0014B4  C01F  F01F         	movff	___fladd@b+1,?___fladd+1
  3437   0014B8  C020  F020         	movff	___fladd@b+2,?___fladd+2
  3438   0014BC  C021  F021         	movff	___fladd@b+3,?___fladd+3
  3439   0014C0                     l983:
  3440   0014C0  0012               	return		;funcret
  3441   0014C2                     __end_of___fladd:
  3442                           	callstack 0
  3443                           
  3444 ;; *************** function _SYSTEM_Initialize *****************
  3445 ;; Defined at:
  3446 ;;		line 50 in file "mcc_generated_files/mcc.c"
  3447 ;; Parameters:    Size  Location     Type
  3448 ;;		None
  3449 ;; Auto vars:     Size  Location     Type
  3450 ;;		None
  3451 ;; Return value:  Size  Location     Type
  3452 ;;                  1    wreg      void 
  3453 ;; Registers used:
  3454 ;;		wreg, status,2, status,0, cstack
  3455 ;; Tracked objects:
  3456 ;;		On entry : 0/0
  3457 ;;		On exit  : 0/0
  3458 ;;		Unchanged: 0/0
  3459 ;; Data sizes:     COMRAM   BANK0   BANK1   BANK2   BANK3   BANK4   BANK5   BANK6   BANK7   BANK8   BANK9  BANK10  BANK1
      +1  BANK12  BANK13  BANK14  BANK15
  3460 ;;      Params:         0       0       0       0       0       0       0       0       0       0       0       0       
      +0       0       0       0       0
  3461 ;;      Locals:         0       0       0       0       0       0       0       0       0       0       0       0       
      +0       0       0       0       0
  3462 ;;      Temps:          0       0       0       0       0       0       0       0       0       0       0       0       
      +0       0       0       0       0
  3463 ;;      Totals:         0       0       0       0       0       0       0       0       0       0       0       0       
      +0       0       0       0       0
  3464 ;;Total ram usage:        0 bytes
  3465 ;; Hardware stack levels used: 1
  3466 ;; Hardware stack levels required when called: 5
  3467 ;; This function calls:
  3468 ;;		_ADC_Initialize
  3469 ;;		_EUSART1_Initialize
  3470 ;;		_INTERRUPT_Initialize
  3471 ;;		_OSCILLATOR_Initialize
  3472 ;;		_PIN_MANAGER_Initialize
  3473 ;;		_TMR0_Initialize
  3474 ;;		_TMR5_Initialize
  3475 ;; This function is called by:
  3476 ;;		_main
  3477 ;; This function uses a non-reentrant model
  3478 ;;
  3479                           
  3480                           	psect	text10
  3481   00284A                     __ptext10:
  3482                           	callstack 0
  3483   00284A                     _SYSTEM_Initialize:
  3484                           	callstack 25
  3485   00284A                     
  3486                           ;mcc_generated_files/mcc.c: 53:     INTERRUPT_Initialize();
  3487   00284A  EC7A  F014         	call	_INTERRUPT_Initialize	;wreg free
  3488   00284E                     
  3489                           ;mcc_generated_files/mcc.c: 54:     PIN_MANAGER_Initialize();
  3490   00284E  EC27  F013         	call	_PIN_MANAGER_Initialize	;wreg free
  3491   002852                     
  3492                           ;mcc_generated_files/mcc.c: 55:     OSCILLATOR_Initialize();
  3493   002852  EC4A  F014         	call	_OSCILLATOR_Initialize	;wreg free
  3494   002856                     
  3495                           ;mcc_generated_files/mcc.c: 56:     TMR5_Initialize();
  3496   002856  EC85  F013         	call	_TMR5_Initialize	;wreg free
  3497   00285A                     
  3498                           ;mcc_generated_files/mcc.c: 57:     TMR0_Initialize();
  3499   00285A  ECC0  F013         	call	_TMR0_Initialize	;wreg free
  3500   00285E                     
  3501                           ;mcc_generated_files/mcc.c: 58:     ADC_Initialize();
  3502   00285E  EC34  F014         	call	_ADC_Initialize	;wreg free
  3503   002862                     
  3504                           ;mcc_generated_files/mcc.c: 59:     EUSART1_Initialize();
  3505   002862  EC02  F013         	call	_EUSART1_Initialize	;wreg free
  3506   002866  0012               	return		;funcret
  3507   002868                     __end_of_SYSTEM_Initialize:
  3508                           	callstack 0
  3509                           
  3510 ;; *************** function _TMR5_Initialize *****************
  3511 ;; Defined at:
  3512 ;;		line 64 in file "mcc_generated_files/tmr5.c"
  3513 ;; Parameters:    Size  Location     Type
  3514 ;;		None
  3515 ;; Auto vars:     Size  Location     Type
  3516 ;;		None
  3517 ;; Return value:  Size  Location     Type
  3518 ;;                  1    wreg      void 
  3519 ;; Registers used:
  3520 ;;		wreg, status,2, status,0, cstack
  3521 ;; Tracked objects:
  3522 ;;		On entry : 0/0
  3523 ;;		On exit  : 0/0
  3524 ;;		Unchanged: 0/0
  3525 ;; Data sizes:     COMRAM   BANK0   BANK1   BANK2   BANK3   BANK4   BANK5   BANK6   BANK7   BANK8   BANK9  BANK10  BANK1
      +1  BANK12  BANK13  BANK14  BANK15
  3526 ;;      Params:         0       0       0       0       0       0       0       0       0       0       0       0       
      +0       0       0       0       0
  3527 ;;      Locals:         0       0       0       0       0       0       0       0       0       0       0       0       
      +0       0       0       0       0
  3528 ;;      Temps:          2       0       0       0       0       0       0       0       0       0       0       0       
      +0       0       0       0       0
  3529 ;;      Totals:         2       0       0       0       0       0       0       0       0       0       0       0       
      +0       0       0       0       0
  3530 ;;Total ram usage:        2 bytes
  3531 ;; Hardware stack levels used: 1
  3532 ;; Hardware stack levels required when called: 4
  3533 ;; This function calls:
  3534 ;;		_TMR5_SetInterruptHandler
  3535 ;; This function is called by:
  3536 ;;		_SYSTEM_Initialize
  3537 ;; This function uses a non-reentrant model
  3538 ;;
  3539                           
  3540                           	psect	text11
  3541   00270A                     __ptext11:
  3542                           	callstack 0
  3543   00270A                     _TMR5_Initialize:
  3544                           	callstack 25
  3545   00270A                     
  3546                           ;mcc_generated_files/tmr5.c: 69:     T5GCON = 0x00;
  3547   00270A  0E00               	movlw	0
  3548   00270C  6E7A               	movwf	122,c	;volatile
  3549                           
  3550                           ;mcc_generated_files/tmr5.c: 72:     TMR5H = 0xF9;
  3551   00270E  0EF9               	movlw	249
  3552   002710  6E7D               	movwf	125,c	;volatile
  3553                           
  3554                           ;mcc_generated_files/tmr5.c: 75:     TMR5L = 0xC0;
  3555   002712  0EC0               	movlw	192
  3556   002714  6E7C               	movwf	124,c	;volatile
  3557   002716                     
  3558                           ;mcc_generated_files/tmr5.c: 78:     PIR5bits.TMR5IF = 0;
  3559   002716  92BA               	bcf	186,1,c	;volatile
  3560   002718                     
  3561                           ;mcc_generated_files/tmr5.c: 81:     timer5ReloadVal=(uint16_t)((TMR5H << 8) | TMR5L);
  3562   002718  507C               	movf	124,w,c	;volatile
  3563   00271A  CF7D F008          	movff	3965,??_TMR5_Initialize	;volatile
  3564   00271E  6A09               	clrf	(??_TMR5_Initialize+1)^0,c
  3565   002720  C008  F009         	movff	??_TMR5_Initialize,??_TMR5_Initialize+1
  3566   002724  6A08               	clrf	??_TMR5_Initialize^0,c
  3567   002726  1008               	iorwf	??_TMR5_Initialize^0,w,c
  3568   002728  6E46               	movwf	_timer5ReloadVal^0,c	;volatile
  3569   00272A  5009               	movf	(??_TMR5_Initialize+1)^0,w,c
  3570   00272C  6E47               	movwf	(_timer5ReloadVal+1)^0,c	;volatile
  3571   00272E                     
  3572                           ;mcc_generated_files/tmr5.c: 84:     PIE5bits.TMR5IE = 1;
  3573   00272E  82B9               	bsf	185,1,c	;volatile
  3574   002730                     
  3575                           ;mcc_generated_files/tmr5.c: 87:     TMR5_SetInterruptHandler(TMR5_DefaultInterruptHandl
      +                          er);
  3576   002730  0EA8               	movlw	low _TMR5_DefaultInterruptHandler
  3577   002732  6E05               	movwf	TMR5_SetInterruptHandler@InterruptHandler^0,c
  3578   002734  0E24               	movlw	high _TMR5_DefaultInterruptHandler
  3579   002736  6E06               	movwf	(TMR5_SetInterruptHandler@InterruptHandler+1)^0,c
  3580   002738  0E00               	movlw	low (_TMR5_DefaultInterruptHandler shr (0+16))
  3581   00273A  6E07               	movwf	(TMR5_SetInterruptHandler@InterruptHandler+2)^0,c
  3582   00273C  EC54  F014         	call	_TMR5_SetInterruptHandler	;wreg free
  3583   002740                     
  3584                           ;mcc_generated_files/tmr5.c: 90:     T5CON = 0x01;
  3585   002740  0E01               	movlw	1
  3586   002742  6E7B               	movwf	123,c	;volatile
  3587   002744  0012               	return		;funcret
  3588   002746                     __end_of_TMR5_Initialize:
  3589                           	callstack 0
  3590                           
  3591 ;; *************** function _TMR5_SetInterruptHandler *****************
  3592 ;; Defined at:
  3593 ;;		line 171 in file "mcc_generated_files/tmr5.c"
  3594 ;; Parameters:    Size  Location     Type
  3595 ;;  InterruptHan    3    4[COMRAM] PTR FTN()void 
  3596 ;;		 -> TMR5_DefaultInterruptHandler(1), 
  3597 ;; Auto vars:     Size  Location     Type
  3598 ;;		None
  3599 ;; Return value:  Size  Location     Type
  3600 ;;                  1    wreg      void 
  3601 ;; Registers used:
  3602 ;;		wreg, status,2, status,0
  3603 ;; Tracked objects:
  3604 ;;		On entry : 0/0
  3605 ;;		On exit  : 0/0
  3606 ;;		Unchanged: 0/0
  3607 ;; Data sizes:     COMRAM   BANK0   BANK1   BANK2   BANK3   BANK4   BANK5   BANK6   BANK7   BANK8   BANK9  BANK10  BANK1
      +1  BANK12  BANK13  BANK14  BANK15
  3608 ;;      Params:         3       0       0       0       0       0       0       0       0       0       0       0       
      +0       0       0       0       0
  3609 ;;      Locals:         0       0       0       0       0       0       0       0       0       0       0       0       
      +0       0       0       0       0
  3610 ;;      Temps:          0       0       0       0       0       0       0       0       0       0       0       0       
      +0       0       0       0       0
  3611 ;;      Totals:         3       0       0       0       0       0       0       0       0       0       0       0       
      +0       0       0       0       0
  3612 ;;Total ram usage:        3 bytes
  3613 ;; Hardware stack levels used: 1
  3614 ;; Hardware stack levels required when called: 3
  3615 ;; This function calls:
  3616 ;;		Nothing
  3617 ;; This function is called by:
  3618 ;;		_TMR5_Initialize
  3619 ;; This function uses a non-reentrant model
  3620 ;;
  3621                           
  3622                           	psect	text12
  3623   0028A8                     __ptext12:
  3624                           	callstack 0
  3625   0028A8                     _TMR5_SetInterruptHandler:
  3626                           	callstack 25
  3627   0028A8                     
  3628                           ;mcc_generated_files/tmr5.c: 172:     TMR5_InterruptHandler = InterruptHandler;
  3629   0028A8  C005  F051         	movff	TMR5_SetInterruptHandler@InterruptHandler,_TMR5_InterruptHandler
  3630   0028AC  C006  F052         	movff	TMR5_SetInterruptHandler@InterruptHandler+1,_TMR5_InterruptHandler+1
  3631   0028B0  C007  F053         	movff	TMR5_SetInterruptHandler@InterruptHandler+2,_TMR5_InterruptHandler+2
  3632   0028B4  0012               	return		;funcret
  3633   0028B6                     __end_of_TMR5_SetInterruptHandler:
  3634                           	callstack 0
  3635                           
  3636 ;; *************** function _TMR0_Initialize *****************
  3637 ;; Defined at:
  3638 ;;		line 67 in file "mcc_generated_files/tmr0.c"
  3639 ;; Parameters:    Size  Location     Type
  3640 ;;		None
  3641 ;; Auto vars:     Size  Location     Type
  3642 ;;		None
  3643 ;; Return value:  Size  Location     Type
  3644 ;;                  1    wreg      void 
  3645 ;; Registers used:
  3646 ;;		wreg, status,2, status,0, cstack
  3647 ;; Tracked objects:
  3648 ;;		On entry : 0/0
  3649 ;;		On exit  : 0/0
  3650 ;;		Unchanged: 0/0
  3651 ;; Data sizes:     COMRAM   BANK0   BANK1   BANK2   BANK3   BANK4   BANK5   BANK6   BANK7   BANK8   BANK9  BANK10  BANK1
      +1  BANK12  BANK13  BANK14  BANK15
  3652 ;;      Params:         0       0       0       0       0       0       0       0       0       0       0       0       
      +0       0       0       0       0
  3653 ;;      Locals:         0       0       0       0       0       0       0       0       0       0       0       0       
      +0       0       0       0       0
  3654 ;;      Temps:          2       0       0       0       0       0       0       0       0       0       0       0       
      +0       0       0       0       0
  3655 ;;      Totals:         2       0       0       0       0       0       0       0       0       0       0       0       
      +0       0       0       0       0
  3656 ;;Total ram usage:        2 bytes
  3657 ;; Hardware stack levels used: 1
  3658 ;; Hardware stack levels required when called: 4
  3659 ;; This function calls:
  3660 ;;		_TMR0_SetInterruptHandler
  3661 ;; This function is called by:
  3662 ;;		_SYSTEM_Initialize
  3663 ;; This function uses a non-reentrant model
  3664 ;;
  3665                           
  3666                           	psect	text13
  3667   002780                     __ptext13:
  3668                           	callstack 0
  3669   002780                     _TMR0_Initialize:
  3670                           	callstack 25
  3671   002780                     
  3672                           ;mcc_generated_files/tmr0.c: 72:     T0CONbits.T08BIT = 0;
  3673   002780  9CD5               	bcf	213,6,c	;volatile
  3674   002782                     
  3675                           ;mcc_generated_files/tmr0.c: 75:     TMR0H = 0xE0;
  3676   002782  0EE0               	movlw	224
  3677   002784  6ED7               	movwf	215,c	;volatile
  3678                           
  3679                           ;mcc_generated_files/tmr0.c: 78:     TMR0L = 0xBF;
  3680   002786  0EBF               	movlw	191
  3681   002788  6ED6               	movwf	214,c	;volatile
  3682   00278A                     
  3683                           ;mcc_generated_files/tmr0.c: 82:     timer0ReloadVal = (uint16_t)((TMR0H << 8) | TMR0L);
  3684   00278A  50D6               	movf	214,w,c	;volatile
  3685   00278C  CFD7 F008          	movff	4055,??_TMR0_Initialize	;volatile
  3686   002790  6A09               	clrf	(??_TMR0_Initialize+1)^0,c
  3687   002792  C008  F009         	movff	??_TMR0_Initialize,??_TMR0_Initialize+1
  3688   002796  6A08               	clrf	??_TMR0_Initialize^0,c
  3689   002798  1008               	iorwf	??_TMR0_Initialize^0,w,c
  3690   00279A  6E44               	movwf	_timer0ReloadVal^0,c	;volatile
  3691   00279C  5009               	movf	(??_TMR0_Initialize+1)^0,w,c
  3692   00279E  6E45               	movwf	(_timer0ReloadVal+1)^0,c	;volatile
  3693   0027A0                     
  3694                           ;mcc_generated_files/tmr0.c: 85:     INTCONbits.TMR0IF = 0;
  3695   0027A0  94F2               	bcf	242,2,c	;volatile
  3696   0027A2                     
  3697                           ;mcc_generated_files/tmr0.c: 88:     INTCONbits.TMR0IE = 1;
  3698   0027A2  8AF2               	bsf	242,5,c	;volatile
  3699   0027A4                     
  3700                           ;mcc_generated_files/tmr0.c: 91:     TMR0_SetInterruptHandler(TMR0_DefaultInterruptHandl
      +                          er);
  3701   0027A4  0EEE               	movlw	low _TMR0_DefaultInterruptHandler
  3702   0027A6  6E05               	movwf	TMR0_SetInterruptHandler@InterruptHandler^0,c
  3703   0027A8  0E28               	movlw	high _TMR0_DefaultInterruptHandler
  3704   0027AA  6E06               	movwf	(TMR0_SetInterruptHandler@InterruptHandler+1)^0,c
  3705   0027AC  0E00               	movlw	low (_TMR0_DefaultInterruptHandler shr (0+16))
  3706   0027AE  6E07               	movwf	(TMR0_SetInterruptHandler@InterruptHandler+2)^0,c
  3707   0027B0  EC5B  F014         	call	_TMR0_SetInterruptHandler	;wreg free
  3708   0027B4                     
  3709                           ;mcc_generated_files/tmr0.c: 94:     T0CON = 0x9F;
  3710   0027B4  0E9F               	movlw	159
  3711   0027B6  6ED5               	movwf	213,c	;volatile
  3712   0027B8  0012               	return		;funcret
  3713   0027BA                     __end_of_TMR0_Initialize:
  3714                           	callstack 0
  3715                           
  3716 ;; *************** function _TMR0_SetInterruptHandler *****************
  3717 ;; Defined at:
  3718 ;;		line 156 in file "mcc_generated_files/tmr0.c"
  3719 ;; Parameters:    Size  Location     Type
  3720 ;;  InterruptHan    3    4[COMRAM] PTR FTN()void 
  3721 ;;		 -> TMR0_DefaultInterruptHandler(1), 
  3722 ;; Auto vars:     Size  Location     Type
  3723 ;;		None
  3724 ;; Return value:  Size  Location     Type
  3725 ;;                  1    wreg      void 
  3726 ;; Registers used:
  3727 ;;		wreg, status,2, status,0
  3728 ;; Tracked objects:
  3729 ;;		On entry : 0/0
  3730 ;;		On exit  : 0/0
  3731 ;;		Unchanged: 0/0
  3732 ;; Data sizes:     COMRAM   BANK0   BANK1   BANK2   BANK3   BANK4   BANK5   BANK6   BANK7   BANK8   BANK9  BANK10  BANK1
      +1  BANK12  BANK13  BANK14  BANK15
  3733 ;;      Params:         3       0       0       0       0       0       0       0       0       0       0       0       
      +0       0       0       0       0
  3734 ;;      Locals:         0       0       0       0       0       0       0       0       0       0       0       0       
      +0       0       0       0       0
  3735 ;;      Temps:          0       0       0       0       0       0       0       0       0       0       0       0       
      +0       0       0       0       0
  3736 ;;      Totals:         3       0       0       0       0       0       0       0       0       0       0       0       
      +0       0       0       0       0
  3737 ;;Total ram usage:        3 bytes
  3738 ;; Hardware stack levels used: 1
  3739 ;; Hardware stack levels required when called: 3
  3740 ;; This function calls:
  3741 ;;		Nothing
  3742 ;; This function is called by:
  3743 ;;		_TMR0_Initialize
  3744 ;; This function uses a non-reentrant model
  3745 ;;
  3746                           
  3747                           	psect	text14
  3748   0028B6                     __ptext14:
  3749                           	callstack 0
  3750   0028B6                     _TMR0_SetInterruptHandler:
  3751                           	callstack 25
  3752   0028B6                     
  3753                           ;mcc_generated_files/tmr0.c: 157:     TMR0_InterruptHandler = InterruptHandler;
  3754   0028B6  C005  F04E         	movff	TMR0_SetInterruptHandler@InterruptHandler,_TMR0_InterruptHandler
  3755   0028BA  C006  F04F         	movff	TMR0_SetInterruptHandler@InterruptHandler+1,_TMR0_InterruptHandler+1
  3756   0028BE  C007  F050         	movff	TMR0_SetInterruptHandler@InterruptHandler+2,_TMR0_InterruptHandler+2
  3757   0028C2  0012               	return		;funcret
  3758   0028C4                     __end_of_TMR0_SetInterruptHandler:
  3759                           	callstack 0
  3760                           
  3761 ;; *************** function _PIN_MANAGER_Initialize *****************
  3762 ;; Defined at:
  3763 ;;		line 55 in file "mcc_generated_files/pin_manager.c"
  3764 ;; Parameters:    Size  Location     Type
  3765 ;;		None
  3766 ;; Auto vars:     Size  Location     Type
  3767 ;;		None
  3768 ;; Return value:  Size  Location     Type
  3769 ;;                  1    wreg      void 
  3770 ;; Registers used:
  3771 ;;		wreg, status,2
  3772 ;; Tracked objects:
  3773 ;;		On entry : 0/0
  3774 ;;		On exit  : 0/0
  3775 ;;		Unchanged: 0/0
  3776 ;; Data sizes:     COMRAM   BANK0   BANK1   BANK2   BANK3   BANK4   BANK5   BANK6   BANK7   BANK8   BANK9  BANK10  BANK1
      +1  BANK12  BANK13  BANK14  BANK15
  3777 ;;      Params:         0       0       0       0       0       0       0       0       0       0       0       0       
      +0       0       0       0       0
  3778 ;;      Locals:         0       0       0       0       0       0       0       0       0       0       0       0       
      +0       0       0       0       0
  3779 ;;      Temps:          0       0       0       0       0       0       0       0       0       0       0       0       
      +0       0       0       0       0
  3780 ;;      Totals:         0       0       0       0       0       0       0       0       0       0       0       0       
      +0       0       0       0       0
  3781 ;;Total ram usage:        0 bytes
  3782 ;; Hardware stack levels used: 1
  3783 ;; Hardware stack levels required when called: 3
  3784 ;; This function calls:
  3785 ;;		Nothing
  3786 ;; This function is called by:
  3787 ;;		_SYSTEM_Initialize
  3788 ;; This function uses a non-reentrant model
  3789 ;;
  3790                           
  3791                           	psect	text15
  3792   00264E                     __ptext15:
  3793                           	callstack 0
  3794   00264E                     _PIN_MANAGER_Initialize:
  3795                           	callstack 26
  3796   00264E                     
  3797                           ;mcc_generated_files/pin_manager.c: 60:     LATE = 0x00;
  3798   00264E  0E00               	movlw	0
  3799   002650  6E8D               	movwf	141,c	;volatile
  3800                           
  3801                           ;mcc_generated_files/pin_manager.c: 61:     LATD = 0x00;
  3802   002652  0E00               	movlw	0
  3803   002654  6E8C               	movwf	140,c	;volatile
  3804                           
  3805                           ;mcc_generated_files/pin_manager.c: 62:     LATA = 0x00;
  3806   002656  0E00               	movlw	0
  3807   002658  6E89               	movwf	137,c	;volatile
  3808                           
  3809                           ;mcc_generated_files/pin_manager.c: 63:     LATF = 0x00;
  3810   00265A  0E00               	movlw	0
  3811   00265C  6E8E               	movwf	142,c	;volatile
  3812                           
  3813                           ;mcc_generated_files/pin_manager.c: 64:     LATB = 0x00;
  3814   00265E  0E00               	movlw	0
  3815   002660  6E8A               	movwf	138,c	;volatile
  3816                           
  3817                           ;mcc_generated_files/pin_manager.c: 65:     LATG = 0x00;
  3818   002662  0E00               	movlw	0
  3819   002664  6E8F               	movwf	143,c	;volatile
  3820                           
  3821                           ;mcc_generated_files/pin_manager.c: 66:     LATC = 0x00;
  3822   002666  0E00               	movlw	0
  3823   002668  6E8B               	movwf	139,c	;volatile
  3824                           
  3825                           ;mcc_generated_files/pin_manager.c: 67:     LATH = 0x00;
  3826   00266A  0E00               	movlw	0
  3827   00266C  6E90               	movwf	144,c	;volatile
  3828   00266E                     
  3829                           ;mcc_generated_files/pin_manager.c: 72:     TRISE = 0xFF;
  3830   00266E  6896               	setf	150,c	;volatile
  3831                           
  3832                           ;mcc_generated_files/pin_manager.c: 73:     TRISF = 0xFE;
  3833   002670  0EFE               	movlw	254
  3834   002672  6E97               	movwf	151,c	;volatile
  3835   002674                     
  3836                           ;mcc_generated_files/pin_manager.c: 74:     TRISA = 0xFF;
  3837   002674  6892               	setf	146,c	;volatile
  3838                           
  3839                           ;mcc_generated_files/pin_manager.c: 75:     TRISG = 0x1F;
  3840   002676  0E1F               	movlw	31
  3841   002678  6E98               	movwf	152,c	;volatile
  3842                           
  3843                           ;mcc_generated_files/pin_manager.c: 76:     TRISB = 0xFE;
  3844   00267A  0EFE               	movlw	254
  3845   00267C  6E93               	movwf	147,c	;volatile
  3846   00267E                     
  3847                           ;mcc_generated_files/pin_manager.c: 77:     TRISH = 0xFF;
  3848   00267E  6899               	setf	153,c	;volatile
  3849                           
  3850                           ;mcc_generated_files/pin_manager.c: 78:     TRISC = 0xBF;
  3851   002680  0EBF               	movlw	191
  3852   002682  6E94               	movwf	148,c	;volatile
  3853   002684                     
  3854                           ;mcc_generated_files/pin_manager.c: 79:     TRISD = 0xFF;
  3855   002684  6895               	setf	149,c	;volatile
  3856   002686                     
  3857                           ;mcc_generated_files/pin_manager.c: 84:     ANCON0 = 0xFF;
  3858   002686  010F               	movlb	15	; () banked
  3859   002688  6925               	setf	37,b	;volatile
  3860   00268A                     
  3861                           ; BSR set to: 15
  3862                           ;mcc_generated_files/pin_manager.c: 85:     ANCON1 = 0xFF;
  3863   00268A  6924               	setf	36,b	;volatile
  3864   00268C                     
  3865                           ; BSR set to: 15
  3866                           ;mcc_generated_files/pin_manager.c: 86:     ANCON2 = 0xFF;
  3867   00268C  6923               	setf	35,b	;volatile
  3868   00268E                     
  3869                           ; BSR set to: 15
  3870   00268E  0012               	return		;funcret
  3871   002690                     __end_of_PIN_MANAGER_Initialize:
  3872                           	callstack 0
  3873                           
  3874 ;; *************** function _OSCILLATOR_Initialize *****************
  3875 ;; Defined at:
  3876 ;;		line 62 in file "mcc_generated_files/mcc.c"
  3877 ;; Parameters:    Size  Location     Type
  3878 ;;		None
  3879 ;; Auto vars:     Size  Location     Type
  3880 ;;		None
  3881 ;; Return value:  Size  Location     Type
  3882 ;;                  1    wreg      void 
  3883 ;; Registers used:
  3884 ;;		wreg, status,2
  3885 ;; Tracked objects:
  3886 ;;		On entry : 0/0
  3887 ;;		On exit  : 0/0
  3888 ;;		Unchanged: 0/0
  3889 ;; Data sizes:     COMRAM   BANK0   BANK1   BANK2   BANK3   BANK4   BANK5   BANK6   BANK7   BANK8   BANK9  BANK10  BANK1
      +1  BANK12  BANK13  BANK14  BANK15
  3890 ;;      Params:         0       0       0       0       0       0       0       0       0       0       0       0       
      +0       0       0       0       0
  3891 ;;      Locals:         0       0       0       0       0       0       0       0       0       0       0       0       
      +0       0       0       0       0
  3892 ;;      Temps:          0       0       0       0       0       0       0       0       0       0       0       0       
      +0       0       0       0       0
  3893 ;;      Totals:         0       0       0       0       0       0       0       0       0       0       0       0       
      +0       0       0       0       0
  3894 ;;Total ram usage:        0 bytes
  3895 ;; Hardware stack levels used: 1
  3896 ;; Hardware stack levels required when called: 3
  3897 ;; This function calls:
  3898 ;;		Nothing
  3899 ;; This function is called by:
  3900 ;;		_SYSTEM_Initialize
  3901 ;; This function uses a non-reentrant model
  3902 ;;
  3903                           
  3904                           	psect	text16
  3905   002894                     __ptext16:
  3906                           	callstack 0
  3907   002894                     _OSCILLATOR_Initialize:
  3908                           	callstack 26
  3909   002894                     
  3910                           ;mcc_generated_files/mcc.c: 65:     OSCCON = 0x60;
  3911   002894  0E60               	movlw	96
  3912   002896  6ED3               	movwf	211,c	;volatile
  3913                           
  3914                           ;mcc_generated_files/mcc.c: 67:     OSCCON2 = 0x00;
  3915   002898  0E00               	movlw	0
  3916   00289A  6E64               	movwf	100,c	;volatile
  3917                           
  3918                           ;mcc_generated_files/mcc.c: 69:     OSCTUNE = 0x00;
  3919   00289C  0E00               	movlw	0
  3920   00289E  6E9B               	movwf	155,c	;volatile
  3921                           
  3922                           ;mcc_generated_files/mcc.c: 71:     REFOCON = 0x00;
  3923   0028A0  0E00               	movlw	0
  3924   0028A2  010F               	movlb	15	; () banked
  3925   0028A4  6F2A               	movwf	42,b	;volatile
  3926   0028A6                     
  3927                           ; BSR set to: 15
  3928   0028A6  0012               	return		;funcret
  3929   0028A8                     __end_of_OSCILLATOR_Initialize:
  3930                           	callstack 0
  3931                           
  3932 ;; *************** function _INTERRUPT_Initialize *****************
  3933 ;; Defined at:
  3934 ;;		line 52 in file "mcc_generated_files/interrupt_manager.c"
  3935 ;; Parameters:    Size  Location     Type
  3936 ;;		None
  3937 ;; Auto vars:     Size  Location     Type
  3938 ;;		None
  3939 ;; Return value:  Size  Location     Type
  3940 ;;                  1    wreg      void 
  3941 ;; Registers used:
  3942 ;;		None
  3943 ;; Tracked objects:
  3944 ;;		On entry : 0/0
  3945 ;;		On exit  : 0/0
  3946 ;;		Unchanged: 0/0
  3947 ;; Data sizes:     COMRAM   BANK0   BANK1   BANK2   BANK3   BANK4   BANK5   BANK6   BANK7   BANK8   BANK9  BANK10  BANK1
      +1  BANK12  BANK13  BANK14  BANK15
  3948 ;;      Params:         0       0       0       0       0       0       0       0       0       0       0       0       
      +0       0       0       0       0
  3949 ;;      Locals:         0       0       0       0       0       0       0       0       0       0       0       0       
      +0       0       0       0       0
  3950 ;;      Temps:          0       0       0       0       0       0       0       0       0       0       0       0       
      +0       0       0       0       0
  3951 ;;      Totals:         0       0       0       0       0       0       0       0       0       0       0       0       
      +0       0       0       0       0
  3952 ;;Total ram usage:        0 bytes
  3953 ;; Hardware stack levels used: 1
  3954 ;; Hardware stack levels required when called: 3
  3955 ;; This function calls:
  3956 ;;		Nothing
  3957 ;; This function is called by:
  3958 ;;		_SYSTEM_Initialize
  3959 ;; This function uses a non-reentrant model
  3960 ;;
  3961                           
  3962                           	psect	text17
  3963   0028F4                     __ptext17:
  3964                           	callstack 0
  3965   0028F4                     _INTERRUPT_Initialize:
  3966                           	callstack 26
  3967   0028F4                     
  3968                           ;mcc_generated_files/interrupt_manager.c: 55:     RCONbits.IPEN = 0;
  3969   0028F4  9ED0               	bcf	208,7,c	;volatile
  3970   0028F6  0012               	return		;funcret
  3971   0028F8                     __end_of_INTERRUPT_Initialize:
  3972                           	callstack 0
  3973                           
  3974 ;; *************** function _EUSART1_Initialize *****************
  3975 ;; Defined at:
  3976 ;;		line 66 in file "mcc_generated_files/eusart1.c"
  3977 ;; Parameters:    Size  Location     Type
  3978 ;;		None
  3979 ;; Auto vars:     Size  Location     Type
  3980 ;;		None
  3981 ;; Return value:  Size  Location     Type
  3982 ;;                  1    wreg      void 
  3983 ;; Registers used:
  3984 ;;		wreg, status,2, status,0, cstack
  3985 ;; Tracked objects:
  3986 ;;		On entry : 0/0
  3987 ;;		On exit  : 0/0
  3988 ;;		Unchanged: 0/0
  3989 ;; Data sizes:     COMRAM   BANK0   BANK1   BANK2   BANK3   BANK4   BANK5   BANK6   BANK7   BANK8   BANK9  BANK10  BANK1
      +1  BANK12  BANK13  BANK14  BANK15
  3990 ;;      Params:         0       0       0       0       0       0       0       0       0       0       0       0       
      +0       0       0       0       0
  3991 ;;      Locals:         0       0       0       0       0       0       0       0       0       0       0       0       
      +0       0       0       0       0
  3992 ;;      Temps:          0       0       0       0       0       0       0       0       0       0       0       0       
      +0       0       0       0       0
  3993 ;;      Totals:         0       0       0       0       0       0       0       0       0       0       0       0       
      +0       0       0       0       0
  3994 ;;Total ram usage:        0 bytes
  3995 ;; Hardware stack levels used: 1
  3996 ;; Hardware stack levels required when called: 4
  3997 ;; This function calls:
  3998 ;;		_EUSART1_SetErrorHandler
  3999 ;;		_EUSART1_SetFramingErrorHandler
  4000 ;;		_EUSART1_SetOverrunErrorHandler
  4001 ;; This function is called by:
  4002 ;;		_SYSTEM_Initialize
  4003 ;; This function uses a non-reentrant model
  4004 ;;
  4005                           
  4006                           	psect	text18
  4007   002604                     __ptext18:
  4008                           	callstack 0
  4009   002604                     _EUSART1_Initialize:
  4010                           	callstack 25
  4011   002604                     
  4012                           ;mcc_generated_files/eusart1.c: 71:     BAUDCON1 = 0x48;
  4013   002604  0E48               	movlw	72
  4014   002606  6E65               	movwf	101,c	;volatile
  4015                           
  4016                           ;mcc_generated_files/eusart1.c: 74:     RCSTA1 = 0x90;
  4017   002608  0E90               	movlw	144
  4018   00260A  6EAB               	movwf	171,c	;volatile
  4019                           
  4020                           ;mcc_generated_files/eusart1.c: 77:     TXSTA1 = 0x24;
  4021   00260C  0E24               	movlw	36
  4022   00260E  6EAC               	movwf	172,c	;volatile
  4023                           
  4024                           ;mcc_generated_files/eusart1.c: 80:     SPBRG1 = 0x40;
  4025   002610  0E40               	movlw	64
  4026   002612  6EAF               	movwf	175,c	;volatile
  4027                           
  4028                           ;mcc_generated_files/eusart1.c: 83:     SPBRGH1 = 0x03;
  4029   002614  0E03               	movlw	3
  4030   002616  6ED4               	movwf	212,c	;volatile
  4031   002618                     
  4032                           ;mcc_generated_files/eusart1.c: 86:     EUSART1_SetFramingErrorHandler(EUSART1_DefaultFr
      +                          amingErrorHandler);
  4033   002618  0E00               	movlw	0
  4034   00261A  6E05               	movwf	EUSART1_SetFramingErrorHandler@interruptHandler^0,c
  4035   00261C  0E00               	movlw	0
  4036   00261E  6E06               	movwf	(EUSART1_SetFramingErrorHandler@interruptHandler+1)^0,c
  4037   002620  0E00               	movlw	0
  4038   002622  6E07               	movwf	(EUSART1_SetFramingErrorHandler@interruptHandler+2)^0,c
  4039   002624  EC69  F014         	call	_EUSART1_SetFramingErrorHandler	;wreg free
  4040   002628                     
  4041                           ;mcc_generated_files/eusart1.c: 87:     EUSART1_SetOverrunErrorHandler(EUSART1_DefaultOv
      +                          errunErrorHandler);
  4042   002628  0E00               	movlw	0
  4043   00262A  6E05               	movwf	EUSART1_SetOverrunErrorHandler@interruptHandler^0,c
  4044   00262C  0E00               	movlw	0
  4045   00262E  6E06               	movwf	(EUSART1_SetOverrunErrorHandler@interruptHandler+1)^0,c
  4046   002630  0E00               	movlw	0
  4047   002632  6E07               	movwf	(EUSART1_SetOverrunErrorHandler@interruptHandler+2)^0,c
  4048   002634  EC62  F014         	call	_EUSART1_SetOverrunErrorHandler	;wreg free
  4049   002638                     
  4050                           ;mcc_generated_files/eusart1.c: 88:     EUSART1_SetErrorHandler(EUSART1_DefaultErrorHand
      +                          ler);
  4051   002638  0E00               	movlw	0
  4052   00263A  6E05               	movwf	EUSART1_SetErrorHandler@interruptHandler^0,c
  4053   00263C  0E00               	movlw	0
  4054   00263E  6E06               	movwf	(EUSART1_SetErrorHandler@interruptHandler+1)^0,c
  4055   002640  0E00               	movlw	0
  4056   002642  6E07               	movwf	(EUSART1_SetErrorHandler@interruptHandler+2)^0,c
  4057   002644  EC70  F014         	call	_EUSART1_SetErrorHandler	;wreg free
  4058   002648                     
  4059                           ;mcc_generated_files/eusart1.c: 90:     eusart1RxLastError.status = 0;
  4060   002648  0E00               	movlw	0
  4061   00264A  6E48               	movwf	_eusart1RxLastError^0,c	;volatile
  4062   00264C  0012               	return		;funcret
  4063   00264E                     __end_of_EUSART1_Initialize:
  4064                           	callstack 0
  4065                           
  4066 ;; *************** function _EUSART1_SetOverrunErrorHandler *****************
  4067 ;; Defined at:
  4068 ;;		line 170 in file "mcc_generated_files/eusart1.c"
  4069 ;; Parameters:    Size  Location     Type
  4070 ;;  interruptHan    3    4[COMRAM] PTR FTN()void 
  4071 ;;		 -> EUSART1_DefaultOverrunErrorHandler(1), 
  4072 ;; Auto vars:     Size  Location     Type
  4073 ;;		None
  4074 ;; Return value:  Size  Location     Type
  4075 ;;                  1    wreg      void 
  4076 ;; Registers used:
  4077 ;;		wreg, status,2, status,0
  4078 ;; Tracked objects:
  4079 ;;		On entry : 0/0
  4080 ;;		On exit  : 0/0
  4081 ;;		Unchanged: 0/0
  4082 ;; Data sizes:     COMRAM   BANK0   BANK1   BANK2   BANK3   BANK4   BANK5   BANK6   BANK7   BANK8   BANK9  BANK10  BANK1
      +1  BANK12  BANK13  BANK14  BANK15
  4083 ;;      Params:         3       0       0       0       0       0       0       0       0       0       0       0       
      +0       0       0       0       0
  4084 ;;      Locals:         0       0       0       0       0       0       0       0       0       0       0       0       
      +0       0       0       0       0
  4085 ;;      Temps:          0       0       0       0       0       0       0       0       0       0       0       0       
      +0       0       0       0       0
  4086 ;;      Totals:         3       0       0       0       0       0       0       0       0       0       0       0       
      +0       0       0       0       0
  4087 ;;Total ram usage:        3 bytes
  4088 ;; Hardware stack levels used: 1
  4089 ;; Hardware stack levels required when called: 3
  4090 ;; This function calls:
  4091 ;;		Nothing
  4092 ;; This function is called by:
  4093 ;;		_EUSART1_Initialize
  4094 ;; This function uses a non-reentrant model
  4095 ;;
  4096                           
  4097                           	psect	text19
  4098   0028C4                     __ptext19:
  4099                           	callstack 0
  4100   0028C4                     _EUSART1_SetOverrunErrorHandler:
  4101                           	callstack 25
  4102   0028C4                     
  4103                           ;mcc_generated_files/eusart1.c: 171:     EUSART1_OverrunErrorHandler = interruptHandler;
  4104   0028C4  C005  F063         	movff	EUSART1_SetOverrunErrorHandler@interruptHandler,_EUSART1_OverrunErrorHandler
  4105   0028C8  C006  F064         	movff	EUSART1_SetOverrunErrorHandler@interruptHandler+1,_EUSART1_OverrunErrorHandler+1
  4106   0028CC  C007  F065         	movff	EUSART1_SetOverrunErrorHandler@interruptHandler+2,_EUSART1_OverrunErrorHandler+2
  4107   0028D0  0012               	return		;funcret
  4108   0028D2                     __end_of_EUSART1_SetOverrunErrorHandler:
  4109                           	callstack 0
  4110                           
  4111 ;; *************** function _EUSART1_SetFramingErrorHandler *****************
  4112 ;; Defined at:
  4113 ;;		line 166 in file "mcc_generated_files/eusart1.c"
  4114 ;; Parameters:    Size  Location     Type
  4115 ;;  interruptHan    3    4[COMRAM] PTR FTN()void 
  4116 ;;		 -> EUSART1_DefaultFramingErrorHandler(1), 
  4117 ;; Auto vars:     Size  Location     Type
  4118 ;;		None
  4119 ;; Return value:  Size  Location     Type
  4120 ;;                  1    wreg      void 
  4121 ;; Registers used:
  4122 ;;		wreg, status,2, status,0
  4123 ;; Tracked objects:
  4124 ;;		On entry : 0/0
  4125 ;;		On exit  : 0/0
  4126 ;;		Unchanged: 0/0
  4127 ;; Data sizes:     COMRAM   BANK0   BANK1   BANK2   BANK3   BANK4   BANK5   BANK6   BANK7   BANK8   BANK9  BANK10  BANK1
      +1  BANK12  BANK13  BANK14  BANK15
  4128 ;;      Params:         3       0       0       0       0       0       0       0       0       0       0       0       
      +0       0       0       0       0
  4129 ;;      Locals:         0       0       0       0       0       0       0       0       0       0       0       0       
      +0       0       0       0       0
  4130 ;;      Temps:          0       0       0       0       0       0       0       0       0       0       0       0       
      +0       0       0       0       0
  4131 ;;      Totals:         3       0       0       0       0       0       0       0       0       0       0       0       
      +0       0       0       0       0
  4132 ;;Total ram usage:        3 bytes
  4133 ;; Hardware stack levels used: 1
  4134 ;; Hardware stack levels required when called: 3
  4135 ;; This function calls:
  4136 ;;		Nothing
  4137 ;; This function is called by:
  4138 ;;		_EUSART1_Initialize
  4139 ;; This function uses a non-reentrant model
  4140 ;;
  4141                           
  4142                           	psect	text20
  4143   0028D2                     __ptext20:
  4144                           	callstack 0
  4145   0028D2                     _EUSART1_SetFramingErrorHandler:
  4146                           	callstack 25
  4147   0028D2                     
  4148                           ;mcc_generated_files/eusart1.c: 167:     EUSART1_FramingErrorHandler = interruptHandler;
  4149   0028D2  C005  F066         	movff	EUSART1_SetFramingErrorHandler@interruptHandler,_EUSART1_FramingErrorHandler
  4150   0028D6  C006  F067         	movff	EUSART1_SetFramingErrorHandler@interruptHandler+1,_EUSART1_FramingErrorHandler+1
  4151   0028DA  C007  F068         	movff	EUSART1_SetFramingErrorHandler@interruptHandler+2,_EUSART1_FramingErrorHandler+2
  4152   0028DE  0012               	return		;funcret
  4153   0028E0                     __end_of_EUSART1_SetFramingErrorHandler:
  4154                           	callstack 0
  4155                           
  4156 ;; *************** function _EUSART1_SetErrorHandler *****************
  4157 ;; Defined at:
  4158 ;;		line 174 in file "mcc_generated_files/eusart1.c"
  4159 ;; Parameters:    Size  Location     Type
  4160 ;;  interruptHan    3    4[COMRAM] PTR FTN()void 
  4161 ;;		 -> EUSART1_DefaultErrorHandler(1), 
  4162 ;; Auto vars:     Size  Location     Type
  4163 ;;		None
  4164 ;; Return value:  Size  Location     Type
  4165 ;;                  1    wreg      void 
  4166 ;; Registers used:
  4167 ;;		wreg, status,2, status,0
  4168 ;; Tracked objects:
  4169 ;;		On entry : 0/0
  4170 ;;		On exit  : 0/0
  4171 ;;		Unchanged: 0/0
  4172 ;; Data sizes:     COMRAM   BANK0   BANK1   BANK2   BANK3   BANK4   BANK5   BANK6   BANK7   BANK8   BANK9  BANK10  BANK1
      +1  BANK12  BANK13  BANK14  BANK15
  4173 ;;      Params:         3       0       0       0       0       0       0       0       0       0       0       0       
      +0       0       0       0       0
  4174 ;;      Locals:         0       0       0       0       0       0       0       0       0       0       0       0       
      +0       0       0       0       0
  4175 ;;      Temps:          0       0       0       0       0       0       0       0       0       0       0       0       
      +0       0       0       0       0
  4176 ;;      Totals:         3       0       0       0       0       0       0       0       0       0       0       0       
      +0       0       0       0       0
  4177 ;;Total ram usage:        3 bytes
  4178 ;; Hardware stack levels used: 1
  4179 ;; Hardware stack levels required when called: 3
  4180 ;; This function calls:
  4181 ;;		Nothing
  4182 ;; This function is called by:
  4183 ;;		_EUSART1_Initialize
  4184 ;; This function uses a non-reentrant model
  4185 ;;
  4186                           
  4187                           	psect	text21
  4188   0028E0                     __ptext21:
  4189                           	callstack 0
  4190   0028E0                     _EUSART1_SetErrorHandler:
  4191                           	callstack 25
  4192   0028E0                     
  4193                           ;mcc_generated_files/eusart1.c: 175:     EUSART1_ErrorHandler = interruptHandler;
  4194   0028E0  C005  F060         	movff	EUSART1_SetErrorHandler@interruptHandler,_EUSART1_ErrorHandler
  4195   0028E4  C006  F061         	movff	EUSART1_SetErrorHandler@interruptHandler+1,_EUSART1_ErrorHandler+1
  4196   0028E8  C007  F062         	movff	EUSART1_SetErrorHandler@interruptHandler+2,_EUSART1_ErrorHandler+2
  4197   0028EC  0012               	return		;funcret
  4198   0028EE                     __end_of_EUSART1_SetErrorHandler:
  4199                           	callstack 0
  4200                           
  4201 ;; *************** function _ADC_Initialize *****************
  4202 ;; Defined at:
  4203 ;;		line 62 in file "mcc_generated_files/adc.c"
  4204 ;; Parameters:    Size  Location     Type
  4205 ;;		None
  4206 ;; Auto vars:     Size  Location     Type
  4207 ;;		None
  4208 ;; Return value:  Size  Location     Type
  4209 ;;                  1    wreg      void 
  4210 ;; Registers used:
  4211 ;;		wreg, status,2
  4212 ;; Tracked objects:
  4213 ;;		On entry : 0/0
  4214 ;;		On exit  : 0/0
  4215 ;;		Unchanged: 0/0
  4216 ;; Data sizes:     COMRAM   BANK0   BANK1   BANK2   BANK3   BANK4   BANK5   BANK6   BANK7   BANK8   BANK9  BANK10  BANK1
      +1  BANK12  BANK13  BANK14  BANK15
  4217 ;;      Params:         0       0       0       0       0       0       0       0       0       0       0       0       
      +0       0       0       0       0
  4218 ;;      Locals:         0       0       0       0       0       0       0       0       0       0       0       0       
      +0       0       0       0       0
  4219 ;;      Temps:          0       0       0       0       0       0       0       0       0       0       0       0       
      +0       0       0       0       0
  4220 ;;      Totals:         0       0       0       0       0       0       0       0       0       0       0       0       
      +0       0       0       0       0
  4221 ;;Total ram usage:        0 bytes
  4222 ;; Hardware stack levels used: 1
  4223 ;; Hardware stack levels required when called: 3
  4224 ;; This function calls:
  4225 ;;		Nothing
  4226 ;; This function is called by:
  4227 ;;		_SYSTEM_Initialize
  4228 ;; This function uses a non-reentrant model
  4229 ;;
  4230                           
  4231                           	psect	text22
  4232   002868                     __ptext22:
  4233                           	callstack 0
  4234   002868                     _ADC_Initialize:
  4235                           	callstack 26
  4236   002868                     
  4237                           ;mcc_generated_files/adc.c: 67:     ADCON0 = 0x01;
  4238   002868  0E01               	movlw	1
  4239   00286A  6EC2               	movwf	194,c	;volatile
  4240                           
  4241                           ;mcc_generated_files/adc.c: 70:     ADCON1 = 0x80;
  4242   00286C  0E80               	movlw	128
  4243   00286E  6EC1               	movwf	193,c	;volatile
  4244                           
  4245                           ;mcc_generated_files/adc.c: 73:     ADCON2 = 0xBE;
  4246   002870  0EBE               	movlw	190
  4247   002872  6EC0               	movwf	192,c	;volatile
  4248                           
  4249                           ;mcc_generated_files/adc.c: 76:     ADRESH = 0x00;
  4250   002874  0E00               	movlw	0
  4251   002876  6EC4               	movwf	196,c	;volatile
  4252                           
  4253                           ;mcc_generated_files/adc.c: 79:     ADRESL = 0x00;
  4254   002878  0E00               	movlw	0
  4255   00287A  6EC3               	movwf	195,c	;volatile
  4256   00287C  0012               	return		;funcret
  4257   00287E                     __end_of_ADC_Initialize:
  4258                           	callstack 0
  4259                           
  4260 ;; *************** function _EUSART1_Write *****************
  4261 ;; Defined at:
  4262 ;;		line 132 in file "mcc_generated_files/eusart1.c"
  4263 ;; Parameters:    Size  Location     Type
  4264 ;;  txData          1    wreg     unsigned char 
  4265 ;; Auto vars:     Size  Location     Type
  4266 ;;  txData          1    4[COMRAM] unsigned char 
  4267 ;; Return value:  Size  Location     Type
  4268 ;;                  1    wreg      void 
  4269 ;; Registers used:
  4270 ;;		wreg
  4271 ;; Tracked objects:
  4272 ;;		On entry : 0/0
  4273 ;;		On exit  : 0/0
  4274 ;;		Unchanged: 0/0
  4275 ;; Data sizes:     COMRAM   BANK0   BANK1   BANK2   BANK3   BANK4   BANK5   BANK6   BANK7   BANK8   BANK9  BANK10  BANK1
      +1  BANK12  BANK13  BANK14  BANK15
  4276 ;;      Params:         0       0       0       0       0       0       0       0       0       0       0       0       
      +0       0       0       0       0
  4277 ;;      Locals:         1       0       0       0       0       0       0       0       0       0       0       0       
      +0       0       0       0       0
  4278 ;;      Temps:          0       0       0       0       0       0       0       0       0       0       0       0       
      +0       0       0       0       0
  4279 ;;      Totals:         1       0       0       0       0       0       0       0       0       0       0       0       
      +0       0       0       0       0
  4280 ;;Total ram usage:        1 bytes
  4281 ;; Hardware stack levels used: 1
  4282 ;; Hardware stack levels required when called: 3
  4283 ;; This function calls:
  4284 ;;		Nothing
  4285 ;; This function is called by:
  4286 ;;		_main
  4287 ;;		_putch
  4288 ;; This function uses a non-reentrant model
  4289 ;;
  4290                           
  4291                           	psect	text23
  4292   00287E                     __ptext23:
  4293                           	callstack 0
  4294   00287E                     _EUSART1_Write:
  4295                           	callstack 27
  4296                           
  4297                           ;incstack = 0
  4298                           ;EUSART1_Write@txData stored from wreg
  4299   00287E  6E05               	movwf	EUSART1_Write@txData^0,c
  4300   002880                     l356:
  4301                           
  4302                           ;mcc_generated_files/eusart1.c: 134:     while(0 == PIR1bits.TX1IF)
  4303   002880  A89E               	btfss	158,4,c	;volatile
  4304   002882  EF45  F014         	goto	u3641
  4305   002886  EF47  F014         	goto	u3640
  4306   00288A                     u3641:
  4307   00288A  EF40  F014         	goto	l356
  4308   00288E                     u3640:
  4309   00288E                     
  4310                           ;mcc_generated_files/eusart1.c: 138:     TXREG1 = txData;
  4311   00288E  C005  FFAD         	movff	EUSART1_Write@txData,4013	;volatile
  4312   002892  0012               	return		;funcret
  4313   002894                     __end_of_EUSART1_Write:
  4314                           	callstack 0
  4315                           
  4316 ;; *************** function _AveregeFilter *****************
  4317 ;; Defined at:
  4318 ;;		line 70 in file "main.c"
  4319 ;; Parameters:    Size  Location     Type
  4320 ;;		None
  4321 ;; Auto vars:     Size  Location     Type
  4322 ;;  i               1   19[COMRAM] unsigned char 
  4323 ;;  sum             4   15[COMRAM] unsigned long 
  4324 ;; Return value:  Size  Location     Type
  4325 ;;                  2    9[COMRAM] unsigned short 
  4326 ;; Registers used:
  4327 ;;		wreg, fsr2l, fsr2h, status,2, status,0, cstack
  4328 ;; Tracked objects:
  4329 ;;		On entry : 0/0
  4330 ;;		On exit  : 0/0
  4331 ;;		Unchanged: 0/0
  4332 ;; Data sizes:     COMRAM   BANK0   BANK1   BANK2   BANK3   BANK4   BANK5   BANK6   BANK7   BANK8   BANK9  BANK10  BANK1
      +1  BANK12  BANK13  BANK14  BANK15
  4333 ;;      Params:         2       0       0       0       0       0       0       0       0       0       0       0       
      +0       0       0       0       0
  4334 ;;      Locals:         5       0       0       0       0       0       0       0       0       0       0       0       
      +0       0       0       0       0
  4335 ;;      Temps:          4       0       0       0       0       0       0       0       0       0       0       0       
      +0       0       0       0       0
  4336 ;;      Totals:        11       0       0       0       0       0       0       0       0       0       0       0       
      +0       0       0       0       0
  4337 ;;Total ram usage:       11 bytes
  4338 ;; Hardware stack levels used: 1
  4339 ;; Hardware stack levels required when called: 4
  4340 ;; This function calls:
  4341 ;;		___lwmod
  4342 ;; This function is called by:
  4343 ;;		_main
  4344 ;; This function uses a non-reentrant model
  4345 ;;
  4346                           
  4347                           	psect	text24
  4348   002404                     __ptext24:
  4349                           	callstack 0
  4350   002404                     _AveregeFilter:
  4351                           	callstack 26
  4352   002404                     
  4353                           ;main.c: 72:     uint32_t sum = 0;
  4354   002404  0E00               	movlw	0
  4355   002406  6E10               	movwf	AveregeFilter@sum^0,c
  4356   002408  0E00               	movlw	0
  4357   00240A  6E11               	movwf	(AveregeFilter@sum+1)^0,c
  4358   00240C  0E00               	movlw	0
  4359   00240E  6E12               	movwf	(AveregeFilter@sum+2)^0,c
  4360   002410  0E00               	movlw	0
  4361   002412  6E13               	movwf	(AveregeFilter@sum+3)^0,c
  4362                           
  4363                           ;main.c: 73:     for(uint8_t i=0; i<128; i++){
  4364   002414  0E00               	movlw	0
  4365   002416  6E14               	movwf	AveregeFilter@i^0,c
  4366   002418                     l3629:
  4367                           
  4368                           ;main.c: 74:         sum += circularBuffer[(bufferIndex - i + 1800) % 1800];
  4369   002418  5014               	movf	AveregeFilter@i^0,w,c
  4370   00241A  5C54               	subwf	_bufferIndex^0,w,c
  4371   00241C  6E0C               	movwf	??_AveregeFilter^0,c
  4372   00241E  0E00               	movlw	0
  4373   002420  5855               	subwfb	(_bufferIndex+1)^0,w,c
  4374   002422  6E0D               	movwf	(??_AveregeFilter+1)^0,c
  4375   002424  0E08               	movlw	8
  4376   002426  240C               	addwf	??_AveregeFilter^0,w,c
  4377   002428  6E05               	movwf	___lwmod@dividend^0,c
  4378   00242A  0E07               	movlw	7
  4379   00242C  200D               	addwfc	(??_AveregeFilter+1)^0,w,c
  4380   00242E  6E06               	movwf	(___lwmod@dividend+1)^0,c
  4381   002430  0E07               	movlw	7
  4382   002432  6E08               	movwf	(___lwmod@divisor+1)^0,c
  4383   002434  0E08               	movlw	8
  4384   002436  6E07               	movwf	___lwmod@divisor^0,c
  4385   002438  ECA1  F012         	call	___lwmod	;wreg free
  4386   00243C  90D8               	bcf	status,0,c
  4387   00243E  3605               	rlcf	?___lwmod^0,f,c
  4388   002440  3606               	rlcf	(?___lwmod+1)^0,f,c
  4389   002442  0E71               	movlw	low _circularBuffer
  4390   002444  2405               	addwf	?___lwmod^0,w,c
  4391   002446  6ED9               	movwf	fsr2l,c
  4392   002448  0E00               	movlw	high _circularBuffer
  4393   00244A  2006               	addwfc	(?___lwmod+1)^0,w,c
  4394   00244C  6EDA               	movwf	fsr2h,c
  4395   00244E  CFDE F00E          	movff	postinc2,??_AveregeFilter+2
  4396   002452  CFDD F00F          	movff	postdec2,??_AveregeFilter+3
  4397   002456  500E               	movf	(??_AveregeFilter+2)^0,w,c
  4398   002458  2610               	addwf	AveregeFilter@sum^0,f,c
  4399   00245A  500F               	movf	(??_AveregeFilter+3)^0,w,c
  4400   00245C  2211               	addwfc	(AveregeFilter@sum+1)^0,f,c
  4401   00245E  0E00               	movlw	0
  4402   002460  2212               	addwfc	(AveregeFilter@sum+2)^0,f,c
  4403   002462  0E00               	movlw	0
  4404   002464  2213               	addwfc	(AveregeFilter@sum+3)^0,f,c
  4405   002466                     
  4406                           ;main.c: 76:     }
  4407   002466  2A14               	incf	AveregeFilter@i^0,f,c
  4408   002468  0E7F               	movlw	127
  4409   00246A  6414               	cpfsgt	AveregeFilter@i^0,c
  4410   00246C  EF3A  F012         	goto	u3661
  4411   002470  EF3C  F012         	goto	u3660
  4412   002474                     u3661:
  4413   002474  EF0C  F012         	goto	l3629
  4414   002478                     u3660:
  4415   002478                     
  4416                           ;main.c: 77:     return (uint16_t)(sum/128);
  4417   002478  C010  F00C         	movff	AveregeFilter@sum,??_AveregeFilter
  4418   00247C  C011  F00D         	movff	AveregeFilter@sum+1,??_AveregeFilter+1
  4419   002480  C012  F00E         	movff	AveregeFilter@sum+2,??_AveregeFilter+2
  4420   002484  C013  F00F         	movff	AveregeFilter@sum+3,??_AveregeFilter+3
  4421   002488  0E08               	movlw	8
  4422   00248A  EF4C  F012         	goto	u3670
  4423   00248E                     u3675:
  4424   00248E  90D8               	bcf	status,0,c
  4425   002490  320F               	rrcf	(??_AveregeFilter+3)^0,f,c
  4426   002492  320E               	rrcf	(??_AveregeFilter+2)^0,f,c
  4427   002494  320D               	rrcf	(??_AveregeFilter+1)^0,f,c
  4428   002496  320C               	rrcf	??_AveregeFilter^0,f,c
  4429   002498                     u3670:
  4430   002498  2EE8               	decfsz	wreg,f,c
  4431   00249A  EF47  F012         	goto	u3675
  4432   00249E  C00C  F00A         	movff	??_AveregeFilter,?_AveregeFilter
  4433   0024A2  C00D  F00B         	movff	??_AveregeFilter+1,?_AveregeFilter+1
  4434   0024A6  0012               	return		;funcret
  4435   0024A8                     __end_of_AveregeFilter:
  4436                           	callstack 0
  4437                           
  4438 ;; *************** function ___lwmod *****************
  4439 ;; Defined at:
  4440 ;;		line 7 in file "C:\Program Files\Microchip\xc8\v2.45\pic\sources\c99\common\lwmod.c"
  4441 ;; Parameters:    Size  Location     Type
  4442 ;;  dividend        2    4[COMRAM] unsigned int 
  4443 ;;  divisor         2    6[COMRAM] unsigned int 
  4444 ;; Auto vars:     Size  Location     Type
  4445 ;;  counter         1    8[COMRAM] unsigned char 
  4446 ;; Return value:  Size  Location     Type
  4447 ;;                  2    4[COMRAM] unsigned int 
  4448 ;; Registers used:
  4449 ;;		wreg, status,2, status,0
  4450 ;; Tracked objects:
  4451 ;;		On entry : 0/0
  4452 ;;		On exit  : 0/0
  4453 ;;		Unchanged: 0/0
  4454 ;; Data sizes:     COMRAM   BANK0   BANK1   BANK2   BANK3   BANK4   BANK5   BANK6   BANK7   BANK8   BANK9  BANK10  BANK1
      +1  BANK12  BANK13  BANK14  BANK15
  4455 ;;      Params:         4       0       0       0       0       0       0       0       0       0       0       0       
      +0       0       0       0       0
  4456 ;;      Locals:         1       0       0       0       0       0       0       0       0       0       0       0       
      +0       0       0       0       0
  4457 ;;      Temps:          0       0       0       0       0       0       0       0       0       0       0       0       
      +0       0       0       0       0
  4458 ;;      Totals:         5       0       0       0       0       0       0       0       0       0       0       0       
      +0       0       0       0       0
  4459 ;;Total ram usage:        5 bytes
  4460 ;; Hardware stack levels used: 1
  4461 ;; Hardware stack levels required when called: 3
  4462 ;; This function calls:
  4463 ;;		Nothing
  4464 ;; This function is called by:
  4465 ;;		_sampleSignal
  4466 ;;		_AveregeFilter
  4467 ;;		_StandardDev
  4468 ;; This function uses a non-reentrant model
  4469 ;;
  4470                           
  4471                           	psect	text25
  4472   002542                     __ptext25:
  4473                           	callstack 0
  4474   002542                     ___lwmod:
  4475                           	callstack 26
  4476   002542  5007               	movf	___lwmod@divisor^0,w,c
  4477   002544  1008               	iorwf	(___lwmod@divisor+1)^0,w,c
  4478   002546  B4D8               	btfsc	status,2,c
  4479   002548  EFA8  F012         	goto	u3511
  4480   00254C  EFAA  F012         	goto	u3510
  4481   002550                     u3511:
  4482   002550  EFCE  F012         	goto	l947
  4483   002554                     u3510:
  4484   002554  0E01               	movlw	1
  4485   002556  6E09               	movwf	___lwmod@counter^0,c
  4486   002558  EFB2  F012         	goto	l3539
  4487   00255C                     l3537:
  4488   00255C  90D8               	bcf	status,0,c
  4489   00255E  3607               	rlcf	___lwmod@divisor^0,f,c
  4490   002560  3608               	rlcf	(___lwmod@divisor+1)^0,f,c
  4491   002562  2A09               	incf	___lwmod@counter^0,f,c
  4492   002564                     l3539:
  4493   002564  AE08               	btfss	(___lwmod@divisor+1)^0,7,c
  4494   002566  EFB7  F012         	goto	u3521
  4495   00256A  EFB9  F012         	goto	u3520
  4496   00256E                     u3521:
  4497   00256E  EFAE  F012         	goto	l3537
  4498   002572                     u3520:
  4499   002572                     l3541:
  4500   002572  5007               	movf	___lwmod@divisor^0,w,c
  4501   002574  5C05               	subwf	___lwmod@dividend^0,w,c
  4502   002576  5008               	movf	(___lwmod@divisor+1)^0,w,c
  4503   002578  5806               	subwfb	(___lwmod@dividend+1)^0,w,c
  4504   00257A  A0D8               	btfss	status,0,c
  4505   00257C  EFC2  F012         	goto	u3531
  4506   002580  EFC4  F012         	goto	u3530
  4507   002584                     u3531:
  4508   002584  EFC8  F012         	goto	l3545
  4509   002588                     u3530:
  4510   002588  5007               	movf	___lwmod@divisor^0,w,c
  4511   00258A  5E05               	subwf	___lwmod@dividend^0,f,c
  4512   00258C  5008               	movf	(___lwmod@divisor+1)^0,w,c
  4513   00258E  5A06               	subwfb	(___lwmod@dividend+1)^0,f,c
  4514   002590                     l3545:
  4515   002590  90D8               	bcf	status,0,c
  4516   002592  3208               	rrcf	(___lwmod@divisor+1)^0,f,c
  4517   002594  3207               	rrcf	___lwmod@divisor^0,f,c
  4518   002596  2E09               	decfsz	___lwmod@counter^0,f,c
  4519   002598  EFB9  F012         	goto	l3541
  4520   00259C                     l947:
  4521   00259C  C005  F005         	movff	___lwmod@dividend,?___lwmod
  4522   0025A0  C006  F006         	movff	___lwmod@dividend+1,?___lwmod+1
  4523   0025A4  0012               	return		;funcret
  4524   0025A6                     __end_of___lwmod:
  4525                           	callstack 0
  4526                           
  4527 ;; *************** function _INTERRUPT_InterruptManager *****************
  4528 ;; Defined at:
  4529 ;;		line 58 in file "mcc_generated_files/interrupt_manager.c"
  4530 ;; Parameters:    Size  Location     Type
  4531 ;;		None
  4532 ;; Auto vars:     Size  Location     Type
  4533 ;;		None
  4534 ;; Return value:  Size  Location     Type
  4535 ;;                  1    wreg      void 
  4536 ;; Registers used:
  4537 ;;		wreg, status,2, status,0, pcl, pclath, pclatu, tosl, cstack
  4538 ;; Tracked objects:
  4539 ;;		On entry : 0/0
  4540 ;;		On exit  : 0/0
  4541 ;;		Unchanged: 0/0
  4542 ;; Data sizes:     COMRAM   BANK0   BANK1   BANK2   BANK3   BANK4   BANK5   BANK6   BANK7   BANK8   BANK9  BANK10  BANK1
      +1  BANK12  BANK13  BANK14  BANK15
  4543 ;;      Params:         0       0       0       0       0       0       0       0       0       0       0       0       
      +0       0       0       0       0
  4544 ;;      Locals:         0       0       0       0       0       0       0       0       0       0       0       0       
      +0       0       0       0       0
  4545 ;;      Temps:          2       0       0       0       0       0       0       0       0       0       0       0       
      +0       0       0       0       0
  4546 ;;      Totals:         2       0       0       0       0       0       0       0       0       0       0       0       
      +0       0       0       0       0
  4547 ;;Total ram usage:        2 bytes
  4548 ;; Hardware stack levels used: 1
  4549 ;; Hardware stack levels required when called: 2
  4550 ;; This function calls:
  4551 ;;		_TMR0_ISR
  4552 ;;		_TMR5_ISR
  4553 ;; This function is called by:
  4554 ;;		Interrupt level 2
  4555 ;; This function uses a non-reentrant model
  4556 ;;
  4557                           
  4558                           	psect	intcode
  4559   000008                     __pintcode:
  4560                           	callstack 0
  4561   000008                     _INTERRUPT_InterruptManager:
  4562                           	callstack 25
  4563                           
  4564                           ;incstack = 0
  4565   000008  8257               	bsf	int$flags,1,c	;set compiler interrupt flag (level 2)
  4566   00000A  CFFA F003          	movff	pclath,??_INTERRUPT_InterruptManager
  4567   00000E  CFFB F004          	movff	pclatu,??_INTERRUPT_InterruptManager+1
  4568   000012                     
  4569                           ;mcc_generated_files/interrupt_manager.c: 61:     if(INTCONbits.TMR0IE == 1 && INTCONbit
      +                          s.TMR0IF == 1)
  4570   000012  AAF2               	btfss	242,5,c	;volatile
  4571   000014  EF0E  F000         	goto	i2u249_41
  4572   000018  EF10  F000         	goto	i2u249_40
  4573   00001C                     i2u249_41:
  4574   00001C  EF1B  F000         	goto	i2l72
  4575   000020                     i2u249_40:
  4576   000020  A4F2               	btfss	242,2,c	;volatile
  4577   000022  EF15  F000         	goto	i2u250_41
  4578   000026  EF17  F000         	goto	i2u250_40
  4579   00002A                     i2u250_41:
  4580   00002A  EF1B  F000         	goto	i2l72
  4581   00002E                     i2u250_40:
  4582   00002E                     
  4583                           ;mcc_generated_files/interrupt_manager.c: 62:     {;mcc_generated_files/interrupt_manage
      +                          r.c: 63:         TMR0_ISR();
  4584   00002E  ECDD  F013         	call	_TMR0_ISR	;wreg free
  4585                           
  4586                           ;mcc_generated_files/interrupt_manager.c: 64:     }
  4587   000032  EF34  F000         	goto	i2l78
  4588   000036                     i2l72:
  4589   000036  ACF2               	btfss	242,6,c	;volatile
  4590   000038  EF20  F000         	goto	i2u251_41
  4591   00003C  EF22  F000         	goto	i2u251_40
  4592   000040                     i2u251_41:
  4593   000040  EF34  F000         	goto	i2l78
  4594   000044                     i2u251_40:
  4595   000044                     
  4596                           ;mcc_generated_files/interrupt_manager.c: 66:     {;mcc_generated_files/interrupt_manage
      +                          r.c: 67:         if(PIE5bits.TMR5IE == 1 && PIR5bits.TMR5IF == 1)
  4597   000044  A2B9               	btfss	185,1,c	;volatile
  4598   000046  EF27  F000         	goto	i2u252_41
  4599   00004A  EF29  F000         	goto	i2u252_40
  4600   00004E                     i2u252_41:
  4601   00004E  EF34  F000         	goto	i2l77
  4602   000052                     i2u252_40:
  4603   000052  A2BA               	btfss	186,1,c	;volatile
  4604   000054  EF2E  F000         	goto	i2u253_41
  4605   000058  EF30  F000         	goto	i2u253_40
  4606   00005C                     i2u253_41:
  4607   00005C  EF34  F000         	goto	i2l77
  4608   000060                     i2u253_40:
  4609   000060                     
  4610                           ;mcc_generated_files/interrupt_manager.c: 68:         {;mcc_generated_files/interrupt_ma
      +                          nager.c: 69:             TMR5_ISR();
  4611   000060  EC48  F013         	call	_TMR5_ISR	;wreg free
  4612                           
  4613                           ;mcc_generated_files/interrupt_manager.c: 70:         }
  4614   000064  EF34  F000         	goto	i2l78
  4615   000068                     i2l77:
  4616   000068                     i2l78:
  4617   000068  C004  FFFB         	movff	??_INTERRUPT_InterruptManager+1,pclatu
  4618   00006C  C003  FFFA         	movff	??_INTERRUPT_InterruptManager,pclath
  4619   000070  9257               	bcf	int$flags,1,c	;clear compiler interrupt flag (level 2)
  4620   000072  0011               	retfie		f
  4621   000074                     __end_of_INTERRUPT_InterruptManager:
  4622                           	callstack 0
  4623                           
  4624 ;; *************** function _TMR5_ISR *****************
  4625 ;; Defined at:
  4626 ;;		line 157 in file "mcc_generated_files/tmr5.c"
  4627 ;; Parameters:    Size  Location     Type
  4628 ;;		None
  4629 ;; Auto vars:     Size  Location     Type
  4630 ;;		None
  4631 ;; Return value:  Size  Location     Type
  4632 ;;                  1    wreg      void 
  4633 ;; Registers used:
  4634 ;;		wreg, status,2, status,0, pcl, pclath, pclatu, tosl, cstack
  4635 ;; Tracked objects:
  4636 ;;		On entry : 0/0
  4637 ;;		On exit  : 0/0
  4638 ;;		Unchanged: 0/0
  4639 ;; Data sizes:     COMRAM   BANK0   BANK1   BANK2   BANK3   BANK4   BANK5   BANK6   BANK7   BANK8   BANK9  BANK10  BANK1
      +1  BANK12  BANK13  BANK14  BANK15
  4640 ;;      Params:         0       0       0       0       0       0       0       0       0       0       0       0       
      +0       0       0       0       0
  4641 ;;      Locals:         0       0       0       0       0       0       0       0       0       0       0       0       
      +0       0       0       0       0
  4642 ;;      Temps:          0       0       0       0       0       0       0       0       0       0       0       0       
      +0       0       0       0       0
  4643 ;;      Totals:         0       0       0       0       0       0       0       0       0       0       0       0       
      +0       0       0       0       0
  4644 ;;Total ram usage:        0 bytes
  4645 ;; Hardware stack levels used: 1
  4646 ;; Hardware stack levels required when called: 1
  4647 ;; This function calls:
  4648 ;;		NULL
  4649 ;;		_TMR5_DefaultInterruptHandler
  4650 ;;		_TMR5_WriteTimer
  4651 ;; This function is called by:
  4652 ;;		_INTERRUPT_InterruptManager
  4653 ;; This function uses a non-reentrant model
  4654 ;;
  4655                           
  4656                           	psect	text27
  4657   002690                     __ptext27:
  4658                           	callstack 0
  4659   002690                     _TMR5_ISR:
  4660                           	callstack 25
  4661   002690                     
  4662                           ;mcc_generated_files/tmr5.c: 161:     PIR5bits.TMR5IF = 0;
  4663   002690  92BA               	bcf	186,1,c	;volatile
  4664   002692                     
  4665                           ;mcc_generated_files/tmr5.c: 162:     TMR5_WriteTimer(timer5ReloadVal);
  4666   002692  C046  F001         	movff	_timer5ReloadVal,TMR5_WriteTimer@timerVal	;volatile
  4667   002696  C047  F002         	movff	_timer5ReloadVal+1,TMR5_WriteTimer@timerVal+1	;volatile
  4668   00269A  EC11  F014         	call	_TMR5_WriteTimer	;wreg free
  4669   00269E                     
  4670                           ;mcc_generated_files/tmr5.c: 164:     if(TMR5_InterruptHandler)
  4671   00269E  5051               	movf	_TMR5_InterruptHandler^0,w,c
  4672   0026A0  1052               	iorwf	(_TMR5_InterruptHandler+1)^0,w,c
  4673   0026A2  1053               	iorwf	(_TMR5_InterruptHandler+2)^0,w,c
  4674   0026A4  B4D8               	btfsc	status,2,c
  4675   0026A6  EF57  F013         	goto	i2u243_41
  4676   0026AA  EF59  F013         	goto	i2u243_40
  4677   0026AE                     i2u243_41:
  4678   0026AE  EF66  F013         	goto	i2l190
  4679   0026B2                     i2u243_40:
  4680   0026B2                     
  4681                           ;mcc_generated_files/tmr5.c: 165:     {;mcc_generated_files/tmr5.c: 166:         TMR5_In
      +                          terruptHandler();
  4682   0026B2  D802               	call	i2u244_48
  4683   0026B4  EF66  F013         	goto	i2u244_49
  4684   0026B8                     i2u244_48:
  4685   0026B8  0005               	push	
  4686   0026BA  6EFA               	movwf	pclath,c
  4687   0026BC  5051               	movf	_TMR5_InterruptHandler^0,w,c
  4688   0026BE  6EFD               	movwf	tosl,c
  4689   0026C0  5052               	movf	(_TMR5_InterruptHandler+1)^0,w,c
  4690   0026C2  6EFE               	movwf	tosh,c
  4691   0026C4  5053               	movf	(_TMR5_InterruptHandler+2)^0,w,c
  4692   0026C6  6EFF               	movwf	tosu,c
  4693   0026C8  50FA               	movf	pclath,w,c
  4694   0026CA  0012               	return		;indir
  4695   0026CC                     i2u244_49:
  4696   0026CC                     i2l190:
  4697   0026CC  0012               	return		;funcret
  4698   0026CE                     __end_of_TMR5_ISR:
  4699                           	callstack 0
  4700                           
  4701 ;; *************** function _TMR5_WriteTimer *****************
  4702 ;; Defined at:
  4703 ;;		line 120 in file "mcc_generated_files/tmr5.c"
  4704 ;; Parameters:    Size  Location     Type
  4705 ;;  timerVal        2    0[COMRAM] unsigned short 
  4706 ;; Auto vars:     Size  Location     Type
  4707 ;;		None
  4708 ;; Return value:  Size  Location     Type
  4709 ;;                  1    wreg      void 
  4710 ;; Registers used:
  4711 ;;		wreg, status,2
  4712 ;; Tracked objects:
  4713 ;;		On entry : 0/0
  4714 ;;		On exit  : 0/0
  4715 ;;		Unchanged: 0/0
  4716 ;; Data sizes:     COMRAM   BANK0   BANK1   BANK2   BANK3   BANK4   BANK5   BANK6   BANK7   BANK8   BANK9  BANK10  BANK1
      +1  BANK12  BANK13  BANK14  BANK15
  4717 ;;      Params:         2       0       0       0       0       0       0       0       0       0       0       0       
      +0       0       0       0       0
  4718 ;;      Locals:         0       0       0       0       0       0       0       0       0       0       0       0       
      +0       0       0       0       0
  4719 ;;      Temps:          0       0       0       0       0       0       0       0       0       0       0       0       
      +0       0       0       0       0
  4720 ;;      Totals:         2       0       0       0       0       0       0       0       0       0       0       0       
      +0       0       0       0       0
  4721 ;;Total ram usage:        2 bytes
  4722 ;; Hardware stack levels used: 1
  4723 ;; This function calls:
  4724 ;;		Nothing
  4725 ;; This function is called by:
  4726 ;;		_TMR5_ISR
  4727 ;;		_TMR5_Reload
  4728 ;; This function uses a non-reentrant model
  4729 ;;
  4730                           
  4731                           	psect	text28
  4732   002822                     __ptext28:
  4733                           	callstack 0
  4734   002822                     _TMR5_WriteTimer:
  4735                           	callstack 25
  4736   002822                     
  4737                           ;mcc_generated_files/tmr5.c: 120: void TMR5_WriteTimer(uint16_t timerVal);mcc_generated_
      +                          files/tmr5.c: 121: {;mcc_generated_files/tmr5.c: 122:     if (T5CONbits.nT5SYNC == 1)
  4738   002822  A47B               	btfss	123,2,c	;volatile
  4739   002824  EF16  F014         	goto	i2u133_41
  4740   002828  EF18  F014         	goto	i2u133_40
  4741   00282C                     i2u133_41:
  4742   00282C  EF20  F014         	goto	i2l2163
  4743   002830                     i2u133_40:
  4744   002830                     
  4745                           ;mcc_generated_files/tmr5.c: 123:     {;mcc_generated_files/tmr5.c: 125:         T5CONbi
      +                          ts.TMR5ON = 0;
  4746   002830  907B               	bcf	123,0,c	;volatile
  4747   002832                     
  4748                           ;mcc_generated_files/tmr5.c: 128:         TMR5H = (uint8_t)(timerVal >> 8);
  4749   002832  5002               	movf	(TMR5_WriteTimer@timerVal+1)^0,w,c
  4750   002834  6E7D               	movwf	125,c	;volatile
  4751   002836                     
  4752                           ;mcc_generated_files/tmr5.c: 129:         TMR5L = (uint8_t)timerVal;
  4753   002836  C001  FF7C         	movff	TMR5_WriteTimer@timerVal,3964	;volatile
  4754   00283A                     
  4755                           ;mcc_generated_files/tmr5.c: 132:         T5CONbits.TMR5ON =1;
  4756   00283A  807B               	bsf	123,0,c	;volatile
  4757                           
  4758                           ;mcc_generated_files/tmr5.c: 133:     }
  4759   00283C  EF24  F014         	goto	i2l177
  4760   002840                     i2l2163:
  4761                           
  4762                           ;mcc_generated_files/tmr5.c: 135:     {;mcc_generated_files/tmr5.c: 137:         TMR5H =
      +                           (uint8_t)(timerVal >> 8);
  4763   002840  5002               	movf	(TMR5_WriteTimer@timerVal+1)^0,w,c
  4764   002842  6E7D               	movwf	125,c	;volatile
  4765   002844                     
  4766                           ;mcc_generated_files/tmr5.c: 138:         TMR5L = (uint8_t)timerVal;
  4767   002844  C001  FF7C         	movff	TMR5_WriteTimer@timerVal,3964	;volatile
  4768   002848                     i2l177:
  4769   002848  0012               	return		;funcret
  4770   00284A                     __end_of_TMR5_WriteTimer:
  4771                           	callstack 0
  4772                           
  4773 ;; *************** function _TMR5_DefaultInterruptHandler *****************
  4774 ;; Defined at:
  4775 ;;		line 175 in file "mcc_generated_files/tmr5.c"
  4776 ;; Parameters:    Size  Location     Type
  4777 ;;		None
  4778 ;; Auto vars:     Size  Location     Type
  4779 ;;		None
  4780 ;; Return value:  Size  Location     Type
  4781 ;;                  1    wreg      void 
  4782 ;; Registers used:
  4783 ;;		wreg, status,2, status,0
  4784 ;; Tracked objects:
  4785 ;;		On entry : 0/0
  4786 ;;		On exit  : 0/0
  4787 ;;		Unchanged: 0/0
  4788 ;; Data sizes:     COMRAM   BANK0   BANK1   BANK2   BANK3   BANK4   BANK5   BANK6   BANK7   BANK8   BANK9  BANK10  BANK1
      +1  BANK12  BANK13  BANK14  BANK15
  4789 ;;      Params:         0       0       0       0       0       0       0       0       0       0       0       0       
      +0       0       0       0       0
  4790 ;;      Locals:         0       0       0       0       0       0       0       0       0       0       0       0       
      +0       0       0       0       0
  4791 ;;      Temps:          2       0       0       0       0       0       0       0       0       0       0       0       
      +0       0       0       0       0
  4792 ;;      Totals:         2       0       0       0       0       0       0       0       0       0       0       0       
      +0       0       0       0       0
  4793 ;;Total ram usage:        2 bytes
  4794 ;; Hardware stack levels used: 1
  4795 ;; This function calls:
  4796 ;;		Nothing
  4797 ;; This function is called by:
  4798 ;;		_TMR5_Initialize
  4799 ;;		_TMR5_ISR
  4800 ;; This function uses a non-reentrant model
  4801 ;;
  4802                           
  4803                           	psect	text29
  4804   0024A8                     __ptext29:
  4805                           	callstack 0
  4806   0024A8                     _TMR5_DefaultInterruptHandler:
  4807                           	callstack 25
  4808   0024A8                     
  4809                           ;mcc_generated_files/tmr5.c: 177:     brojac_T++;
  4810   0024A8  2A4D               	incf	_brojac_T^0,f,c
  4811                           
  4812                           ;mcc_generated_files/tmr5.c: 179:     switch(servo){
  4813   0024AA  EF87  F012         	goto	i2l1243
  4814   0024AE                     i2l197:
  4815                           
  4816                           ;mcc_generated_files/tmr5.c: 182:                     LATBbits.LATB0 = 1;
  4817   0024AE  808A               	bsf	138,0,c	;volatile
  4818   0024B0                     
  4819                           ;mcc_generated_files/tmr5.c: 183:                     brojac_T_on++;
  4820   0024B0  2A4C               	incf	_brojac_T_on^0,f,c
  4821   0024B2                     
  4822                           ;mcc_generated_files/tmr5.c: 185:                     if(brojac_T_on >= scaled_value){
  4823   0024B2  504A               	movf	_scaled_value^0,w,c	;volatile
  4824   0024B4  5C4C               	subwf	_brojac_T_on^0,w,c
  4825   0024B6  A0D8               	btfss	status,0,c
  4826   0024B8  EF60  F012         	goto	i2u2_41
  4827   0024BC  EF62  F012         	goto	i2u2_40
  4828   0024C0                     i2u2_41:
  4829   0024C0  EFA0  F012         	goto	i2l204
  4830   0024C4                     i2u2_40:
  4831   0024C4                     
  4832                           ;mcc_generated_files/tmr5.c: 186:                         servo = LOW_STATE;
  4833   0024C4  0E02               	movlw	2
  4834   0024C6  6E4B               	movwf	_servo^0,c	;volatile
  4835                           
  4836                           ;mcc_generated_files/tmr5.c: 187:                         brojac_T_on = 0;
  4837   0024C8  0E00               	movlw	0
  4838   0024CA  6E4C               	movwf	_brojac_T_on^0,c
  4839   0024CC  EFA0  F012         	goto	i2l204
  4840   0024D0                     i2l200:
  4841                           
  4842                           ;mcc_generated_files/tmr5.c: 192:                     LATBbits.LATB0 = 0;
  4843   0024D0  908A               	bcf	138,0,c	;volatile
  4844   0024D2                     
  4845                           ;mcc_generated_files/tmr5.c: 194:                     if(brojac_T >= prag_T){
  4846   0024D2  5056               	movf	_prag_T^0,w,c
  4847   0024D4  5C4D               	subwf	_brojac_T^0,w,c
  4848   0024D6  A0D8               	btfss	status,0,c
  4849   0024D8  EF70  F012         	goto	i2u3_41
  4850   0024DC  EF72  F012         	goto	i2u3_40
  4851   0024E0                     i2u3_41:
  4852   0024E0  EFA0  F012         	goto	i2l204
  4853   0024E4                     i2u3_40:
  4854   0024E4                     
  4855                           ;mcc_generated_files/tmr5.c: 195:                         servo = IDLE_STATE;
  4856   0024E4  0E00               	movlw	0
  4857   0024E6  6E4B               	movwf	_servo^0,c	;volatile
  4858                           
  4859                           ;mcc_generated_files/tmr5.c: 196:                         brojac_T = 0;
  4860   0024E8  0E00               	movlw	0
  4861   0024EA  6E4D               	movwf	_brojac_T^0,c
  4862   0024EC  EFA0  F012         	goto	i2l204
  4863   0024F0                     i2l1237:
  4864                           
  4865                           ;mcc_generated_files/tmr5.c: 202:                     if(brojac_T >= prag_T){
  4866   0024F0  5056               	movf	_prag_T^0,w,c
  4867   0024F2  5C4D               	subwf	_brojac_T^0,w,c
  4868   0024F4  A0D8               	btfss	status,0,c
  4869   0024F6  EF7F  F012         	goto	i2u4_41
  4870   0024FA  EF81  F012         	goto	i2u4_40
  4871   0024FE                     i2u4_41:
  4872   0024FE  EFA0  F012         	goto	i2l204
  4873   002502                     i2u4_40:
  4874   002502                     
  4875                           ;mcc_generated_files/tmr5.c: 203:                         servo = HIGH_STATE;
  4876   002502  0E01               	movlw	1
  4877   002504  6E4B               	movwf	_servo^0,c	;volatile
  4878                           
  4879                           ;mcc_generated_files/tmr5.c: 204:                         brojac_T = 0;
  4880   002506  0E00               	movlw	0
  4881   002508  6E4D               	movwf	_brojac_T^0,c
  4882   00250A  EFA0  F012         	goto	i2l204
  4883   00250E                     i2l1243:
  4884   00250E  504B               	movf	_servo^0,w,c	;volatile
  4885   002510  6E01               	movwf	??_TMR5_DefaultInterruptHandler^0,c
  4886   002512  6A02               	clrf	(??_TMR5_DefaultInterruptHandler+1)^0,c
  4887                           
  4888                           ; Switch on 2 bytes has been partitioned into a top level switch of size 1, and 1 sub-sw
      +                          itches
  4889                           ; Switch size 1, requested type "simple"
  4890                           ; Number of cases is 1, Range of values is 0 to 0
  4891                           ; switch strategies available:
  4892                           ; Name         Instructions Cycles
  4893                           ; simple_byte            4     3 (average)
  4894                           ;	Chosen strategy is simple_byte
  4895   002514  5002               	movf	(??_TMR5_DefaultInterruptHandler+1)^0,w,c
  4896   002516  0A00               	xorlw	0	; case 0
  4897   002518  B4D8               	btfsc	status,2,c
  4898   00251A  EF91  F012         	goto	i2l3723
  4899   00251E  EFA0  F012         	goto	i2l204
  4900   002522                     i2l3723:
  4901                           
  4902                           ; Switch size 1, requested type "simple"
  4903                           ; Number of cases is 3, Range of values is 0 to 2
  4904                           ; switch strategies available:
  4905                           ; Name         Instructions Cycles
  4906                           ; simple_byte           10     6 (average)
  4907                           ;	Chosen strategy is simple_byte
  4908   002522  5001               	movf	??_TMR5_DefaultInterruptHandler^0,w,c
  4909   002524  0A00               	xorlw	0	; case 0
  4910   002526  B4D8               	btfsc	status,2,c
  4911   002528  EF78  F012         	goto	i2l1237
  4912   00252C  0A01               	xorlw	1	; case 1
  4913   00252E  B4D8               	btfsc	status,2,c
  4914   002530  EF57  F012         	goto	i2l197
  4915   002534  0A03               	xorlw	3	; case 2
  4916   002536  B4D8               	btfsc	status,2,c
  4917   002538  EF68  F012         	goto	i2l200
  4918   00253C  EFA0  F012         	goto	i2l204
  4919   002540                     i2l204:
  4920   002540  0012               	return		;funcret
  4921   002542                     __end_of_TMR5_DefaultInterruptHandler:
  4922                           	callstack 0
  4923                           
  4924 ;; *************** function _TMR0_ISR *****************
  4925 ;; Defined at:
  4926 ;;		line 136 in file "mcc_generated_files/tmr0.c"
  4927 ;; Parameters:    Size  Location     Type
  4928 ;;		None
  4929 ;; Auto vars:     Size  Location     Type
  4930 ;;		None
  4931 ;; Return value:  Size  Location     Type
  4932 ;;                  1    wreg      void 
  4933 ;; Registers used:
  4934 ;;		wreg, status,2, status,0, pcl, pclath, pclatu, tosl, cstack
  4935 ;; Tracked objects:
  4936 ;;		On entry : 0/0
  4937 ;;		On exit  : 0/0
  4938 ;;		Unchanged: 0/0
  4939 ;; Data sizes:     COMRAM   BANK0   BANK1   BANK2   BANK3   BANK4   BANK5   BANK6   BANK7   BANK8   BANK9  BANK10  BANK1
      +1  BANK12  BANK13  BANK14  BANK15
  4940 ;;      Params:         0       0       0       0       0       0       0       0       0       0       0       0       
      +0       0       0       0       0
  4941 ;;      Locals:         0       0       0       0       0       0       0       0       0       0       0       0       
      +0       0       0       0       0
  4942 ;;      Temps:          0       0       0       0       0       0       0       0       0       0       0       0       
      +0       0       0       0       0
  4943 ;;      Totals:         0       0       0       0       0       0       0       0       0       0       0       0       
      +0       0       0       0       0
  4944 ;;Total ram usage:        0 bytes
  4945 ;; Hardware stack levels used: 1
  4946 ;; Hardware stack levels required when called: 1
  4947 ;; This function calls:
  4948 ;;		NULL
  4949 ;;		_TMR0_DefaultInterruptHandler
  4950 ;; This function is called by:
  4951 ;;		_INTERRUPT_InterruptManager
  4952 ;; This function uses a non-reentrant model
  4953 ;;
  4954                           
  4955                           	psect	text30
  4956   0027BA                     __ptext30:
  4957                           	callstack 0
  4958   0027BA                     _TMR0_ISR:
  4959                           	callstack 25
  4960   0027BA                     
  4961                           ;mcc_generated_files/tmr0.c: 140:     INTCONbits.TMR0IF = 0;
  4962   0027BA  94F2               	bcf	242,2,c	;volatile
  4963   0027BC                     
  4964                           ;mcc_generated_files/tmr0.c: 144:     TMR0H = timer0ReloadVal >> 8;
  4965   0027BC  5045               	movf	(_timer0ReloadVal+1)^0,w,c	;volatile
  4966   0027BE  6ED7               	movwf	215,c	;volatile
  4967   0027C0                     
  4968                           ;mcc_generated_files/tmr0.c: 145:     TMR0L = (uint8_t) timer0ReloadVal;
  4969   0027C0  C044  FFD6         	movff	_timer0ReloadVal,4054	;volatile
  4970   0027C4                     
  4971                           ;mcc_generated_files/tmr0.c: 147:     if(TMR0_InterruptHandler)
  4972   0027C4  504E               	movf	_TMR0_InterruptHandler^0,w,c
  4973   0027C6  104F               	iorwf	(_TMR0_InterruptHandler+1)^0,w,c
  4974   0027C8  1050               	iorwf	(_TMR0_InterruptHandler+2)^0,w,c
  4975   0027CA  B4D8               	btfsc	status,2,c
  4976   0027CC  EFEA  F013         	goto	i2u114_41
  4977   0027D0  EFEC  F013         	goto	i2u114_40
  4978   0027D4                     i2u114_41:
  4979   0027D4  EFF9  F013         	goto	i2l283
  4980   0027D8                     i2u114_40:
  4981   0027D8                     
  4982                           ;mcc_generated_files/tmr0.c: 148:     {;mcc_generated_files/tmr0.c: 149:         TMR0_In
      +                          terruptHandler();
  4983   0027D8  D802               	call	i2u115_48
  4984   0027DA  EFF9  F013         	goto	i2u115_49
  4985   0027DE                     i2u115_48:
  4986   0027DE  0005               	push	
  4987   0027E0  6EFA               	movwf	pclath,c
  4988   0027E2  504E               	movf	_TMR0_InterruptHandler^0,w,c
  4989   0027E4  6EFD               	movwf	tosl,c
  4990   0027E6  504F               	movf	(_TMR0_InterruptHandler+1)^0,w,c
  4991   0027E8  6EFE               	movwf	tosh,c
  4992   0027EA  5050               	movf	(_TMR0_InterruptHandler+2)^0,w,c
  4993   0027EC  6EFF               	movwf	tosu,c
  4994   0027EE  50FA               	movf	pclath,w,c
  4995   0027F0  0012               	return		;indir
  4996   0027F2                     i2u115_49:
  4997   0027F2                     i2l283:
  4998   0027F2  0012               	return		;funcret
  4999   0027F4                     __end_of_TMR0_ISR:
  5000                           	callstack 0
  5001                           
  5002 ;; *************** function _TMR0_DefaultInterruptHandler *****************
  5003 ;; Defined at:
  5004 ;;		line 160 in file "mcc_generated_files/tmr0.c"
  5005 ;; Parameters:    Size  Location     Type
  5006 ;;		None
  5007 ;; Auto vars:     Size  Location     Type
  5008 ;;		None
  5009 ;; Return value:  Size  Location     Type
  5010 ;;                  1    wreg      void 
  5011 ;; Registers used:
  5012 ;;		wreg, status,2
  5013 ;; Tracked objects:
  5014 ;;		On entry : 0/0
  5015 ;;		On exit  : 0/0
  5016 ;;		Unchanged: 0/0
  5017 ;; Data sizes:     COMRAM   BANK0   BANK1   BANK2   BANK3   BANK4   BANK5   BANK6   BANK7   BANK8   BANK9  BANK10  BANK1
      +1  BANK12  BANK13  BANK14  BANK15
  5018 ;;      Params:         0       0       0       0       0       0       0       0       0       0       0       0       
      +0       0       0       0       0
  5019 ;;      Locals:         0       0       0       0       0       0       0       0       0       0       0       0       
      +0       0       0       0       0
  5020 ;;      Temps:          0       0       0       0       0       0       0       0       0       0       0       0       
      +0       0       0       0       0
  5021 ;;      Totals:         0       0       0       0       0       0       0       0       0       0       0       0       
      +0       0       0       0       0
  5022 ;;Total ram usage:        0 bytes
  5023 ;; Hardware stack levels used: 1
  5024 ;; This function calls:
  5025 ;;		Nothing
  5026 ;; This function is called by:
  5027 ;;		_TMR0_Initialize
  5028 ;;		_TMR0_ISR
  5029 ;; This function uses a non-reentrant model
  5030 ;;
  5031                           
  5032                           	psect	text31
  5033   0028EE                     __ptext31:
  5034                           	callstack 0
  5035   0028EE                     _TMR0_DefaultInterruptHandler:
  5036                           	callstack 25
  5037   0028EE                     
  5038                           ;mcc_generated_files/tmr0.c: 161:     flag_tmr0=1;
  5039   0028EE  0E01               	movlw	1
  5040   0028F0  6E49               	movwf	_flag_tmr0^0,c	;volatile
  5041   0028F2  0012               	return		;funcret
  5042   0028F4                     __end_of_TMR0_DefaultInterruptHandler:
  5043                           	callstack 0
  5044                           
  5045                           	psect	smallconst
  5046   001000                     __psmallconst:
  5047                           	callstack 0
  5048   001000  00                 	db	0
  5049   001001  00                 	db	0	; dummy byte at the end
  5050   000000                     
  5051                           	psect	text32
  5052   000000                     __ptext32:
  5053                           	callstack 0
  5054   000000                     
  5055                           	psect	rparam
  5056   000000                     
  5057                           	psect	temp
  5058   000057                     btemp:
  5059                           	callstack 0
  5060   000057                     	ds	1
  5061   000000                     int$flags	set	btemp
  5062   000000                     wtemp8	set	btemp+1
  5063   000000                     ttemp5	set	btemp+1
  5064   000000                     ttemp6	set	btemp+4
  5065   000000                     ttemp7	set	btemp+8
  5066                           
  5067                           	psect	config
  5068                           
  5069                           ;Config register CONFIG1L @ 0x300000
  5070                           ;	VREG Sleep Enable bit
  5071                           ;	RETEN = ON, Enabled
  5072                           ;	LF-INTOSC Low-power Enable bit
  5073                           ;	INTOSCSEL = HIGH, LF-INTOSC in High-power mode during Sleep
  5074                           ;	SOSC Power Selection and mode Configuration bits
  5075                           ;	SOSCSEL = DIG, Digital (SCLKI) mode
  5076                           ;	Extended Instruction Set
  5077                           ;	XINST = OFF, Disabled
  5078   300000                     	org	3145728
  5079   300000  15                 	db	21
  5080                           
  5081                           ;Config register CONFIG1H @ 0x300001
  5082                           ;	Oscillator
  5083                           ;	FOSC = HS2, HS oscillator (High power, 16 MHz - 25 MHz)
  5084                           ;	PLL x4 Enable bit
  5085                           ;	PLLCFG = ON, Enabled
  5086                           ;	Fail-Safe Clock Monitor
  5087                           ;	FCMEN = OFF, Disabled
  5088                           ;	Internal External Oscillator Switch Over Mode
  5089                           ;	IESO = OFF, Disabled
  5090   300001                     	org	3145729
  5091   300001  12                 	db	18
  5092                           
  5093                           ;Config register CONFIG2L @ 0x300002
  5094                           ;	Power Up Timer
  5095                           ;	PWRTEN = OFF, Disabled
  5096                           ;	Brown Out Detect
  5097                           ;	BOREN = SBORDIS, Enabled in hardware, SBOREN disabled
  5098                           ;	Brown-out Reset Voltage bits
  5099                           ;	BORV = 3, 1.8V
  5100                           ;	BORMV Power level
  5101                           ;	BORPWR = ZPBORMV, ZPBORMV instead of BORMV is selected
  5102   300002                     	org	3145730
  5103   300002  7F                 	db	127
  5104                           
  5105                           ;Config register CONFIG2H @ 0x300003
  5106                           ;	Watchdog Timer
  5107                           ;	WDTEN = OFF, WDT disabled in hardware; SWDTEN bit disabled
  5108                           ;	Watchdog Postscaler
  5109                           ;	WDTPS = 1048576, 1:1048576
  5110   300003                     	org	3145731
  5111   300003  7C                 	db	124
  5112                           
  5113                           ;Config register CONFIG3L @ 0x300004
  5114                           ;	RTCC Clock Select
  5115                           ;	RTCOSC = SOSCREF, RTCC uses SOSC
  5116                           ;	External Address Shift bit
  5117                           ;	EASHFT = ON, Address Shifting enabled
  5118                           ;	Address Bus Width Select bits
  5119                           ;	ABW = MM, 8-bit address bus
  5120                           ;	Data Bus Width
  5121                           ;	BW = 16, 16-bit external bus mode
  5122                           ;	External Bus Wait
  5123                           ;	WAIT = OFF, Disabled
  5124   300004                     	org	3145732
  5125   300004  F9                 	db	249
  5126                           
  5127                           ;Config register CONFIG3H @ 0x300005
  5128                           ;	CCP2 Mux
  5129                           ;	CCP2MX = PORTC, RC1
  5130                           ;	ECCP Mux
  5131                           ;	ECCPMX = PORTE, Enhanced CCP1/3 [P1B/P1C/P3B/P3C] muxed with RE6/RE5/RE4/RE3
  5132                           ;	MSSP address masking
  5133                           ;	MSSPMSK = MSK7, 7 Bit address masking mode
  5134                           ;	Master Clear Enable
  5135                           ;	MCLRE = ON, MCLR Enabled, RG5 Disabled
  5136   300005                     	org	3145733
  5137   300005  8B                 	db	139
  5138                           
  5139                           ;Config register CONFIG4L @ 0x300006
  5140                           ;	Stack Overflow Reset
  5141                           ;	STVREN = ON, Enabled
  5142                           ;	Boot Block Size
  5143                           ;	BBSIZ = BB2K, 2K word Boot Block size
  5144                           ;	Background Debug
  5145                           ;	DEBUG = OFF, Disabled
  5146   300006                     	org	3145734
  5147   300006  91                 	db	145
  5148                           
  5149                           ; Padding undefined space
  5150   300007                     	org	3145735
  5151   300007  FF                 	db	255
  5152                           
  5153                           ;Config register CONFIG5L @ 0x300008
  5154                           ;	Code Protect 00800-03FFF
  5155                           ;	CP0 = OFF, Disabled
  5156                           ;	Code Protect 04000-07FFF
  5157                           ;	CP1 = OFF, Disabled
  5158                           ;	Code Protect 08000-0BFFF
  5159                           ;	CP2 = OFF, Disabled
  5160                           ;	Code Protect 0C000-0FFFF
  5161                           ;	CP3 = OFF, Disabled
  5162                           ;	Code Protect 10000-13FFF
  5163                           ;	CP4 = OFF, Disabled
  5164                           ;	Code Protect 14000-17FFF
  5165                           ;	CP5 = OFF, Disabled
  5166                           ;	Code Protect 18000-1BFFF
  5167                           ;	CP6 = OFF, Disabled
  5168                           ;	Code Protect 1C000-1FFFF
  5169                           ;	CP7 = OFF, Disabled
  5170   300008                     	org	3145736
  5171   300008  FF                 	db	255
  5172                           
  5173                           ;Config register CONFIG5H @ 0x300009
  5174                           ;	Code Protect Boot
  5175                           ;	CPB = OFF, Disabled
  5176                           ;	Data EE Read Protect
  5177                           ;	CPD = OFF, Disabled
  5178   300009                     	org	3145737
  5179   300009  C0                 	db	192
  5180                           
  5181                           ;Config register CONFIG6L @ 0x30000A
  5182                           ;	Table Write Protect 00800-03FFF
  5183                           ;	WRT0 = OFF, Disabled
  5184                           ;	Table Write Protect 04000-07FFF
  5185                           ;	WRT1 = OFF, Disabled
  5186                           ;	Table Write Protect 08000-0BFFF
  5187                           ;	WRT2 = OFF, Disabled
  5188                           ;	Table Write Protect 0C000-0FFFF
  5189                           ;	WRT3 = OFF, Disabled
  5190                           ;	Table Write Protect 10000-13FFF
  5191                           ;	WRT4 = OFF, Disabled
  5192                           ;	Table Write Protect 14000-17FFF
  5193                           ;	WRT5 = OFF, Disabled
  5194                           ;	Table Write Protect 18000-1BFFF
  5195                           ;	WRT6 = OFF, Disabled
  5196                           ;	Table Write Protect 1C000-1FFFF
  5197                           ;	WRT7 = OFF, Disabled
  5198   30000A                     	org	3145738
  5199   30000A  FF                 	db	255
  5200                           
  5201                           ;Config register CONFIG6H @ 0x30000B
  5202                           ;	Config. Write Protect
  5203                           ;	WRTC = OFF, Disabled
  5204                           ;	Table Write Protect Boot
  5205                           ;	WRTB = OFF, Disabled
  5206                           ;	Data EE Write Protect
  5207                           ;	WRTD = OFF, Disabled
  5208   30000B                     	org	3145739
  5209   30000B  E0                 	db	224
  5210                           
  5211                           ;Config register CONFIG7L @ 0x30000C
  5212                           ;	Table Read Protect 00800-03FFF
  5213                           ;	EBRT0 = OFF, Disabled
  5214                           ;	Table Read Protect 04000-07FFF
  5215                           ;	EBRT1 = OFF, Disabled
  5216                           ;	Table Read Protect 08000-0BFFF
  5217                           ;	EBRT2 = OFF, Disabled
  5218                           ;	Table Read Protect 0C000-0FFFF
  5219                           ;	EBRT3 = OFF, Disabled
  5220                           ;	Table Read Protect 10000-13FFF
  5221                           ;	EBRT4 = OFF, Disabled
  5222                           ;	Table Read Protect 14000-17FFF
  5223                           ;	EBRT5 = OFF, Disabled
  5224                           ;	Table Read Protect 18000-1BFFF
  5225                           ;	EBRT6 = OFF, Disabled
  5226                           ;	Table Read Protect 1C000-1FFFF
  5227                           ;	EBRT7 = OFF, Disabled
  5228   30000C                     	org	3145740
  5229   30000C  FF                 	db	255
  5230                           
  5231                           ;Config register CONFIG7H @ 0x30000D
  5232                           ;	Table Read Protect Boot
  5233                           ;	EBRTB = OFF, Disabled
  5234   30000D                     	org	3145741
  5235   30000D  40                 	db	64
  5236                           tosu	equ	0xFFF
  5237                           tosh	equ	0xFFE
  5238                           tosl	equ	0xFFD
  5239                           stkptr	equ	0xFFC
  5240                           pclatu	equ	0xFFB
  5241                           pclath	equ	0xFFA
  5242                           pcl	equ	0xFF9
  5243                           tblptru	equ	0xFF8
  5244                           tblptrh	equ	0xFF7
  5245                           tblptrl	equ	0xFF6
  5246                           tablat	equ	0xFF5
  5247                           prodh	equ	0xFF4
  5248                           prodl	equ	0xFF3
  5249                           indf0	equ	0xFEF
  5250                           postinc0	equ	0xFEE
  5251                           postdec0	equ	0xFED
  5252                           preinc0	equ	0xFEC
  5253                           plusw0	equ	0xFEB
  5254                           fsr0h	equ	0xFEA
  5255                           fsr0l	equ	0xFE9
  5256                           wreg	equ	0xFE8
  5257                           indf1	equ	0xFE7
  5258                           postinc1	equ	0xFE6
  5259                           postdec1	equ	0xFE5
  5260                           preinc1	equ	0xFE4
  5261                           plusw1	equ	0xFE3
  5262                           fsr1h	equ	0xFE2
  5263                           fsr1l	equ	0xFE1
  5264                           bsr	equ	0xFE0
  5265                           indf2	equ	0xFDF
  5266                           postinc2	equ	0xFDE
  5267                           postdec2	equ	0xFDD
  5268                           preinc2	equ	0xFDC
  5269                           plusw2	equ	0xFDB
  5270                           fsr2h	equ	0xFDA
  5271                           fsr2l	equ	0xFD9
  5272                           status	equ	0xFD8

Data Sizes:
    Strings     0
    Constant    0
    Data        1
    BSS         3615
    Persistent  17
    Stack       0

Auto Spaces:
    Space          Size  Autos    Used
    COMRAM           94     62      86
    BANK0           160      8      17
    BANK1           256      0       0
    BANK2           256      0       0
    BANK3           256      0       0
    BANK4           256      0       0
    BANK5           256      0       0
    BANK6           256      0       0
    BANK7           256      0       0
    BANK8           256      0       0
    BANK9           256      0       0
    BANK10          256      0       0
    BANK11          256      0       0
    BANK12          256      0       0
    BANK13          256      0       0
    BANK14          256      0       0
    BANK15           22      0       0

Pointer List with Targets:

    ADC_InterruptHandler	PTR FTN()void  size(3) Largest target is 1
		 -> NULL(), 

    EUSART1_ErrorHandler	PTR FTN()void  size(3) Largest target is 1
		 -> EUSART1_DefaultErrorHandler(), NULL(), 

    EUSART1_FramingErrorHandler	PTR FTN()void  size(3) Largest target is 1
		 -> EUSART1_DefaultFramingErrorHandler(), NULL(), 

    EUSART1_OverrunErrorHandler	PTR FTN()void  size(3) Largest target is 1
		 -> EUSART1_DefaultOverrunErrorHandler(), NULL(), 

    EUSART1_SetErrorHandler@interruptHandler	PTR FTN()void  size(3) Largest target is 1
		 -> EUSART1_DefaultErrorHandler(), 

    EUSART1_SetFramingErrorHandler@interruptHandler	PTR FTN()void  size(3) Largest target is 1
		 -> EUSART1_DefaultFramingErrorHandler(), 

    EUSART1_SetOverrunErrorHandler@interruptHandler	PTR FTN()void  size(3) Largest target is 1
		 -> EUSART1_DefaultOverrunErrorHandler(), 

    TMR0_InterruptHandler	PTR FTN()void  size(3) Largest target is 1
		 -> TMR0_DefaultInterruptHandler(), NULL(), 

    TMR0_SetInterruptHandler@InterruptHandler	PTR FTN()void  size(3) Largest target is 1
		 -> TMR0_DefaultInterruptHandler(), 

    TMR5_InterruptHandler	PTR FTN()void  size(3) Largest target is 1
		 -> TMR5_DefaultInterruptHandler(), NULL(), 

    TMR5_SetInterruptHandler@InterruptHandler	PTR FTN()void  size(3) Largest target is 1
		 -> TMR5_DefaultInterruptHandler(), 


Critical Paths under _main in COMRAM

    _main->_StandardDev
    _sampleSignal->_ADC_GetConversion
    _sampleSignal->___lwmod
    _calculateThreshold->___flmul
    _StandardDev->___fladd
    ___xxtofl->___lwmod
    ___fladd->___flmul
    _SYSTEM_Initialize->_TMR0_Initialize
    _SYSTEM_Initialize->_TMR5_Initialize
    _TMR5_Initialize->_TMR5_SetInterruptHandler
    _TMR0_Initialize->_TMR0_SetInterruptHandler
    _EUSART1_Initialize->_EUSART1_SetErrorHandler
    _EUSART1_Initialize->_EUSART1_SetFramingErrorHandler
    _EUSART1_Initialize->_EUSART1_SetOverrunErrorHandler
    _AveregeFilter->___lwmod

Critical Paths under _INTERRUPT_InterruptManager in COMRAM

    _TMR5_ISR->_TMR5_DefaultInterruptHandler
    _TMR5_ISR->_TMR5_WriteTimer

Critical Paths under _main in BANK0

    None.

Critical Paths under _INTERRUPT_InterruptManager in BANK0

    None.

Critical Paths under _main in BANK1

    None.

Critical Paths under _INTERRUPT_InterruptManager in BANK1

    None.

Critical Paths under _main in BANK2

    None.

Critical Paths under _INTERRUPT_InterruptManager in BANK2

    None.

Critical Paths under _main in BANK3

    None.

Critical Paths under _INTERRUPT_InterruptManager in BANK3

    None.

Critical Paths under _main in BANK4

    None.

Critical Paths under _INTERRUPT_InterruptManager in BANK4

    None.

Critical Paths under _main in BANK5

    None.

Critical Paths under _INTERRUPT_InterruptManager in BANK5

    None.

Critical Paths under _main in BANK6

    None.

Critical Paths under _INTERRUPT_InterruptManager in BANK6

    None.

Critical Paths under _main in BANK7

    None.

Critical Paths under _INTERRUPT_InterruptManager in BANK7

    None.

Critical Paths under _main in BANK8

    None.

Critical Paths under _INTERRUPT_InterruptManager in BANK8

    None.

Critical Paths under _main in BANK9

    None.

Critical Paths under _INTERRUPT_InterruptManager in BANK9

    None.

Critical Paths under _main in BANK10

    None.

Critical Paths under _INTERRUPT_InterruptManager in BANK10

    None.

Critical Paths under _main in BANK11

    None.

Critical Paths under _INTERRUPT_InterruptManager in BANK11

    None.

Critical Paths under _main in BANK12

    None.

Critical Paths under _INTERRUPT_InterruptManager in BANK12

    None.

Critical Paths under _main in BANK13

    None.

Critical Paths under _INTERRUPT_InterruptManager in BANK13

    None.

Critical Paths under _main in BANK14

    None.

Critical Paths under _INTERRUPT_InterruptManager in BANK14

    None.

Critical Paths under _main in BANK15

    None.

Critical Paths under _INTERRUPT_InterruptManager in BANK15

    None.

Call Graph Tables:

 ---------------------------------------------------------------------------------
 (Depth) Function   	        Calls       Base Space   Used Autos Params    Refs
 ---------------------------------------------------------------------------------
 (0) _main                                                10    10      0   16733
                                              0 BANK0      8     8      0
                  _ADC_GetConversion
                      _AveregeFilter
                      _EUSART1_Write
                  _SYSTEM_Initialize
                        _StandardDev
                 _calculateThreshold
                       _sampleSignal
 ---------------------------------------------------------------------------------
 (1) _sampleSignal                                         2     2      0     837
                                              9 COMRAM     2     2      0
                  _ADC_GetConversion
                            ___lwmod
 ---------------------------------------------------------------------------------
 (2) _ADC_GetConversion                                    5     3      2      31
                                              4 COMRAM     5     3      2
 ---------------------------------------------------------------------------------
 (1) _calculateThreshold                                  10     6      4    2851
                                             29 COMRAM     4     0      4
                            ___flmul
 ---------------------------------------------------------------------------------
 (1) _StandardDev                                         17    13      4   11250
                                             45 COMRAM    17    13      4
                            ___fladd
                            ___fldiv
                            ___flmul
                            ___lwmod
                           ___xxtofl
                              _sqrtf
 ---------------------------------------------------------------------------------
 (2) _sqrtf                                               41    37      4    1157
                                              4 COMRAM    37    33      4
 ---------------------------------------------------------------------------------
 (2) ___xxtofl                                            14    10      4     656
                                              9 COMRAM    14    10      4
                            ___lwmod (ARG)
 ---------------------------------------------------------------------------------
 (2) ___flmul                                             25    17      8    2693
                                              4 COMRAM    25    17      8
 ---------------------------------------------------------------------------------
 (2) ___fldiv                                             25    17      8    2183
                                              4 COMRAM    25    17      8
 ---------------------------------------------------------------------------------
 (2) ___fladd                                             16     8      8    3402
                                             29 COMRAM    16     8      8
                            ___flmul (ARG)
 ---------------------------------------------------------------------------------
 (1) _SYSTEM_Initialize                                    0     0      0     605
                     _ADC_Initialize
                 _EUSART1_Initialize
               _INTERRUPT_Initialize
              _OSCILLATOR_Initialize
             _PIN_MANAGER_Initialize
                    _TMR0_Initialize
                    _TMR5_Initialize
 ---------------------------------------------------------------------------------
 (2) _TMR5_Initialize                                      2     2      0     121
                                              7 COMRAM     2     2      0
           _TMR5_SetInterruptHandler
 ---------------------------------------------------------------------------------
 (3) _TMR5_SetInterruptHandler                             3     0      3     121
                                              4 COMRAM     3     0      3
 ---------------------------------------------------------------------------------
 (2) _TMR0_Initialize                                      2     2      0     121
                                              7 COMRAM     2     2      0
           _TMR0_SetInterruptHandler
 ---------------------------------------------------------------------------------
 (3) _TMR0_SetInterruptHandler                             3     0      3     121
                                              4 COMRAM     3     0      3
 ---------------------------------------------------------------------------------
 (2) _PIN_MANAGER_Initialize                               0     0      0       0
 ---------------------------------------------------------------------------------
 (2) _OSCILLATOR_Initialize                                0     0      0       0
 ---------------------------------------------------------------------------------
 (2) _INTERRUPT_Initialize                                 0     0      0       0
 ---------------------------------------------------------------------------------
 (2) _EUSART1_Initialize                                   0     0      0     363
            _EUSART1_SetErrorHandler
     _EUSART1_SetFramingErrorHandler
     _EUSART1_SetOverrunErrorHandler
 ---------------------------------------------------------------------------------
 (3) _EUSART1_SetOverrunErrorHandler                       3     0      3     121
                                              4 COMRAM     3     0      3
 ---------------------------------------------------------------------------------
 (3) _EUSART1_SetFramingErrorHandler                       3     0      3     121
                                              4 COMRAM     3     0      3
 ---------------------------------------------------------------------------------
 (3) _EUSART1_SetErrorHandler                              3     0      3     121
                                              4 COMRAM     3     0      3
 ---------------------------------------------------------------------------------
 (2) _ADC_Initialize                                       0     0      0       0
 ---------------------------------------------------------------------------------
 (1) _EUSART1_Write                                        1     1      0      22
                                              4 COMRAM     1     1      0
 ---------------------------------------------------------------------------------
 (1) _AveregeFilter                                       11     9      2     908
                                              9 COMRAM    11     9      2
                            ___lwmod
 ---------------------------------------------------------------------------------
 (2) ___lwmod                                              5     1      4     772
                                              4 COMRAM     5     1      4
 ---------------------------------------------------------------------------------
 Estimated maximum stack depth 3
 ---------------------------------------------------------------------------------
 (Depth) Function   	        Calls       Base Space   Used Autos Params    Refs
 ---------------------------------------------------------------------------------
 (4) _INTERRUPT_InterruptManager                           2     2      0     240
                                              2 COMRAM     2     2      0
                           _TMR0_ISR
                           _TMR5_ISR
 ---------------------------------------------------------------------------------
 (5) _TMR5_ISR                                             0     0      0     240
                                NULL *
       _TMR5_DefaultInterruptHandler *
                    _TMR5_WriteTimer
 ---------------------------------------------------------------------------------
 (6) _TMR5_WriteTimer                                      2     0      2     240
                                              0 COMRAM     2     0      2
 ---------------------------------------------------------------------------------
 (6) _TMR5_DefaultInterruptHandler                         2     2      0       0
                                              0 COMRAM     2     2      0
 ---------------------------------------------------------------------------------
 (5) _TMR0_ISR                                             0     0      0       0
                                NULL *
       _TMR0_DefaultInterruptHandler *
 ---------------------------------------------------------------------------------
 (6) _TMR0_DefaultInterruptHandler                         0     0      0       0
 ---------------------------------------------------------------------------------
 (6) NULL(Fake)                                            0     0      0       0
 ---------------------------------------------------------------------------------
 Estimated maximum stack depth 6
 ---------------------------------------------------------------------------------

 Call Graph Graphs:

 _main (ROOT)
   _ADC_GetConversion
   _AveregeFilter
     ___lwmod
   _EUSART1_Write
   _SYSTEM_Initialize
     _ADC_Initialize
     _EUSART1_Initialize
       _EUSART1_SetErrorHandler
       _EUSART1_SetFramingErrorHandler
       _EUSART1_SetOverrunErrorHandler
     _INTERRUPT_Initialize
     _OSCILLATOR_Initialize
     _PIN_MANAGER_Initialize
     _TMR0_Initialize
       _TMR0_SetInterruptHandler
     _TMR5_Initialize
       _TMR5_SetInterruptHandler
   _StandardDev
     ___fladd
       ___flmul (ARG)
     ___fldiv
     ___flmul
     ___lwmod
     ___xxtofl
       ___lwmod (ARG)
     _sqrtf
   _calculateThreshold
     ___flmul
   _sampleSignal
     _ADC_GetConversion
     ___lwmod

 _INTERRUPT_InterruptManager (ROOT)
   _TMR0_ISR
     NULL(Fake) *
     _TMR0_DefaultInterruptHandler *
   _TMR5_ISR
     NULL(Fake) *
     _TMR5_DefaultInterruptHandler *
     _TMR5_WriteTimer *

 Address spaces:
Name               Size   Autos  Total    Cost      Usage
BIGRAM             F15      0     E10      52       93.2%
EEDATA             400      0       0       0        0.0%
BITBANK14          100      0       0      32        0.0%
BANK14             100      0       0      33        0.0%
BITBANK13          100      0       0      30        0.0%
BANK13             100      0       0      31        0.0%
BITBANK12          100      0       0      28        0.0%
BANK12             100      0       0      29        0.0%
BITBANK11          100      0       0      26        0.0%
BANK11             100      0       0      27        0.0%
BITBANK10          100      0       0      24        0.0%
BANK10             100      0       0      25        0.0%
BITBANK9           100      0       0      22        0.0%
BANK9              100      0       0      23        0.0%
BITBANK8           100      0       0      20        0.0%
BANK8              100      0       0      21        0.0%
BITBANK7           100      0       0      18        0.0%
BANK7              100      0       0      19        0.0%
BITBANK6           100      0       0      16        0.0%
BANK6              100      0       0      17        0.0%
BITBANK5           100      0       0      14        0.0%
BANK5              100      0       0      15        0.0%
BITBANK4           100      0       0      12        0.0%
BANK4              100      0       0      13        0.0%
BITBANK3           100      0       0      10        0.0%
BANK3              100      0       0      11        0.0%
BITBANK2           100      0       0       8        0.0%
BANK2              100      0       0       9        0.0%
BITBANK1           100      0       0       6        0.0%
BANK1              100      0       0       7        0.0%
BITBANK0            A0      0       0       4        0.0%
BANK0               A0      8      11       5       10.6%
BITCOMRAM           5E      0       0       0        0.0%
COMRAM              5E     3E      56       1       91.5%
BITBIGSFRllh        39      0       0      48        0.0%
BITBIGSFRhlhh       1A      0       0      37        0.0%
BITBANK15           16      0       0      34        0.0%
BANK15              16      0       0      35        0.0%
BITBIGSFRlhllll     14      0       0      47        0.0%
BITBIGSFRhh          D      0       0      36        0.0%
BITBIGSFRllll        D      0       0      50        0.0%
BITBIGSFRlhhlll      C      0       0      42        0.0%
BITBIGSFRlhhlhh      B      0       0      39        0.0%
BITBIGSFRlhlllh      B      0       0      46        0.0%
BITBIGSFRlhhllh      9      0       0      41        0.0%
BITBIGSFRlhhlhl      5      0       0      40        0.0%
BITBIGSFRlllh        4      0       0      49        0.0%
BITBIGSFRlhhh        2      0       0      38        0.0%
BITBIGSFRlhhlll      2      0       0      43        0.0%
BITBIGSFRlhlhh       1      0       0      44        0.0%
BITBIGSFRlhlhll      1      0       0      45        0.0%
BIGSFR               0      0       0     200        0.0%
BITSFR_1             0      0       0     200        0.0%
SFR_1                0      0       0     200        0.0%
BITSFR               0      0       0     200        0.0%
SFR                  0      0       0     200        0.0%
STACK                0      0       0       2        0.0%
NULL                 0      0       0       0        0.0%
ABS                  0      0      67      51        0.0%
DATA                 0      0     E77       3        0.0%
CODE                 0      0       0       0        0.0%


Microchip Technology PIC18 Macro Assembler V2.45 build 20230818022343 
Symbol Table                                                                                   Wed Feb 21 10:51:18 2024

                                  ___fldiv@aexp 001D                                    ___fldiv@bexp 001C  
              __end_of_TMR5_SetInterruptHandler 28B6                                    ___fldiv@sign 0015  
                                            l40 28A6                                              l37 2866  
                                            l67 28F6                               ??_TMR5_WriteTimer 0003  
                               _timer0ReloadVal 0044                                             l121 268E  
                                           l223 287C                                             l163 2744  
                                           l235 275E                                             l332 264C  
                                           l422 24A6                                             l430 2820  
                                           l238 277E                                             l264 27B8  
                                           l193 28B4                                             l417 2602  
                                           l427 2354                                             l356 2880  
                                           l380 28D0                                             l286 28C2  
                                           l438 235E                                             l359 2892  
                                           l383 28EC                                             l377 28DE  
                                           l954 25A4                                             l947 259C  
                                           l974 11F0                                             l991 130A  
                                           l983 14C0                                             l975 11DE  
                                           l976 11A4                                             tosl 0FFD  
                                           wreg 0FE8                                      _TXSTA1bits 0FAC  
                                  ___flmul@aexp 0012                                    ___flmul@bexp 0017  
                                  ___flmul@sign 0011                                    ___flmul@temp 001C  
                                  ___flmul@prod 0018                                     main@average 006F  
                                          l1000 13DA                                            l1001 13C8  
                                          l1101 20B8                                            l1030 1EC0  
                                          l1104 2214                                            l1041 1F7E  
                                          l1033 1E84                                            l1042 1F6C  
                                          l1130 1ACE                                            l1115 21AC  
                                          l1028 2060                                            l1060 1586  
                                          l1108 2150                                            l1070 17E2  
                                          l1134 1B2C                                            l1126 1CC6  
                                          l1039 1F06                                            l1064 18EA  
                                          l1137 1BF0                                            l3001 1930  
                                          l1067 177C                                            l1139 1C5E  
                                          l3003 195E                                            l3011 1990  
                                          l3101 10CA                                            l1077 18AC  
                                          l1069 17F4                                            l3021 19FE  
                                          l3013 19AE                                            l3005 196C  
                                          l3111 1106                                            l3103 10D2  
                                          l3031 1A82                                            l3015 19DC  
                                          l3007 197C                                            l3201 1330  
                                          l3121 111A                                            l3113 110A  
                                          l3105 10E2                                            l3041 1B1C  
                                          l3033 1A8C                                            l3211 135E  
                                          l3131 112E                                            l3123 111E  
                                          l3115 110E                                            l3107 10F4  
                                          l3051 1C00                                            l3043 1B46  
                                          l3035 1A98                                            l3019 19F0  
                                          l3027 1A1A                                            l3213 136C  
                                          l3205 1344                                            l3221 138A  
                                          l3133 1132                                            l3125 1122  
                                          l3117 1112                                            l3109 1102  
                                          l3141 1142                                            l3301 1D84  
                                          l3053 1C0A                                            l3045 1B66  
                                          l3037 1AA6                                            l3029 1A6E  
                                          l3215 1374                                            l3207 134E  
                                          l3223 1398                                            l3151 11B2  
                                          l3143 1146                                            l3135 1136  
                                          l3127 1126                                            l3119 1116  
                                          l3071 102E                                            l3063 1002  
                                          l3311 1DC6                                            l3303 1D94  
                                          l3055 1C20                                            l3047 1B7A  
                                          l3039 1B0E                                            l3233 13EA  
                                          l3241 1440                                            l3225 139C  
                                          l3217 1378                                            l3209 135C  
                                          l3161 11DC                                            l3153 11BE  
                                          l3145 1170                                            l3137 113A  
                                          l3129 112A                                            l3081 1068  
                                          l3073 103E                                            l3065 100E  
                                          l3305 1DAA                                            l3057 1C36  
                                          l3049 1BB8                                            l3251 1492  
                                          l3243 1450                                            l3235 13F6  
                                          l3227 13AA                                            l3219 1388  
                                          l3171 1232                                            l3163 11FE  
                                          l3155 11C2                                            l3147 118C  
                                          l3139 113E                                            l3091 1096  
                                          l3083 106E                                            l3075 104E  
                                          l3067 101C                                            l3331 1E48  
                                          l3323 1DFE                                            l3307 1DBA  
                                          l3315 1DDA                                            l3411 14EE  
                                          l3403 14C2                                            l3261 14B0  
                                          l3253 1498                                            l3245 1460  
                                          l3237 1404                                            l3229 13C0  
                                          l3181 126C                                            l3173 1240  
                                          l3165 120E                                            l3157 11D0  
                                          l3149 119C                                            l3093 1098  
                                          l3085 1080                                            l3077 1050  
                                          l3069 101E                                            l3341 1E8E  
                                          l3333 1E50                                            l3325 1E18  
                                          l3317 1DEA                                            l3309 1DC2  
                                          l3421 152A                                            l3413 14FE  
                                          l3405 14CE                                            l3255 149A  
                                          l3247 1480                                            l3239 143E  
                                          l3191 12D8                                            l3183 126E  
                                          l3175 124E                                            l3159 11D2  
                                          l3095 10A8                                            l3087 1082  
                                          l3079 1058                                            l3351 1EE6  
                                          l3343 1EAC                                            l3335 1E60  
                                          l3327 1E28                                            l3319 1DEA  
                                          l3271 1CE4                                            l3503 1804  
                                          l3511 184C                                            l3431 1560  
                                          l3423 1530                                            l3415 150E  
                                          l3407 14DC                                            l3601 2856  
                                          l3257 14A0                                            l3249 1484  
                                          l3193 12DA                                            l3185 1278  
                                          l3177 125A                                            l3169 1222  
                                          l3097 10B8                                            l3089 1088  
                                          l3361 1F24                                            l3353 1EEC  
                                          l3345 1EAE                                            l3337 1E74  
                                          l3329 1E38                                            l3273 1CF4  
                                          l3281 1D1E                                            l3265 1CC8  
                                          l3521 18C0                                            l3513 1866  
                                          l3505 1810                                            l3433 1570  
                                          l3425 153E                                            l3417 1514  
                                          l3409 14DE                                            l3611 288E  
                                          l3603 285A                                            l3259 14AE  
                                          l3195 12EA                                            l3179 125E  
                                          l3187 127E                                            l3099 10C8  
                                          l3371 1F8E                                            l3363 1F28  
                                          l3355 1EF6                                            l3347 1EBE  
                                          l3339 1E82                                            l3291 1D4A  
                                          l3283 1D2E                                            l3275 1D04  
                                          l3267 1CD4                                            l3523 18CE  
                                          l3515 187A                                            l3507 181E  
                                          l3451 15F2                                            l3443 15BA  
                                          l3435 1576                                            l3427 1540  
                                          l3419 1524                                            l3541 2572  
                                          l3533 2542                                            l3605 285E  
                                          l3189 12A4                                            l3197 12FA  
                                          l3381 1FF0                                            l3373 1F9A  
                                          l3365 1F36                                            l3357 1F04  
                                          l3349 1ED0                                            l3293 1D5A  
                                          l3285 1D34                                            l3277 1D14  
                                          l3269 1CE2                                            l3525 18D0  
                                          l3517 1894                                            l3509 1848  
                                          l3461 163C                                            l3453 160A  
                                          l3445 15C6                                            l3437 1596  
                                          l3429 1550                                            l3621 25FE  
                                          l3613 25A6                                            l3701 23F6  
                                          l3543 2588                                            l3535 2554  
                                          l3631 2466                                            l3623 2404  
                                          l3607 2862                                            l3199 1320  
                                          l3391 204E                                            l3383 2006  
                                          l3375 1FA8                                            l3367 1F64  
                                          l3359 1F16                                            l3295 1D6A  
                                          l3287 1D3A                                            l3279 1D16  
                                          l3519 18B0                                            l3527 18D6  
                                          l3471 1692                                            l3463 164C  
                                          l3455 1616                                            l3447 15D0  
                                          l3439 15A6                                            l3551 2074  
                                          l3615 25B4                                            l3545 2590  
                                          l3537 255C                                            l3633 2468  
                                          l3609 2880                                            l2921 28B6  
                                          l3393 2054                                            l3385 2020  
                                          l3377 1FD2                                            l3297 1D7A  
                                          l3289 1D48                                            l3529 18DA  
                                          l3481 1736                                            l3473 16AE  
                                          l3465 1658                                            l3457 1622  
                                          l3449 15E6                                            l3561 20F2  
                                          l3553 2082                                            l3617 25CE  
                                          l3547 2596                                            l3539 2564  
                                          l3635 2478                                            l2923 28D2  
                                          l2931 264E                                            l3395 2056  
                                          l3387 203C                                            l3379 1FD6  
                                          l3299 1D7C                                            l3491 178C  
                                          l3483 1744                                            l3475 16BA  
                                          l3467 1668                                            l3459 1630  
                                          l3571 2146                                            l3563 20FA  
                                          l3555 20C8                                            l3651 22EC  
                                          l3619 25EE                                            l3629 2418  
                                          l2925 28C4                                            l2941 2686  
                                          l2933 266E                                            l3389 2040  
                                          l3493 179A                                            l3485 1762  
                                          l3477 16D6                                            l3469 1682  
                                          l3581 21BC                                            l3573 2182  
                                          l3565 2106                                            l3557 20DE  
                                          l3549 2064                                            l3653 22FC  
                                          l3645 222A                                            l3661 2818  
                                          l2927 28E0                                            l2943 268A  
                                          l2935 2674                                            l2919 28A8  
                                          l2951 2716                                            l3495 179E  
                                          l3487 176C                                            l3479 1700  
                                          l3591 2204                                            l3583 21C0  
                                          l3575 218E                                            l3567 2138  
                                          l3647 2292                                            l3639 2216  
                                          l3671 2356                                            l2929 28F4  
                                          l2945 268C                                            l2937 267E  
                                          l2961 2780                                            l2953 2718  
                                          l3497 17AC                                            l3489 177A  
                                          l3585 21E4                                            l3577 219C  
                                          l3569 213A                                            l3649 22EA  
                                          l3657 27F4                                            l3681 237C  
                                          l3673 235A                                            l2947 2894  
                                          l2939 2684                                            l2971 27A4  
                                          l2963 2782                                            l2955 272E  
                                          l3595 284A                                            l3499 17DA  
                                          l3587 21F4                                            l3579 21BA  
                                          l3659 2818                                            l3691 23D0  
                                          l3683 2398                                            l3675 235C  
                                          l2981 2628                                            l2973 27B4  
                                          l2965 278A                                            l2957 2730  
                                          l2949 270A                                            l3597 284E  
                                          l3589 2202                                            l3693 23D6  
                                          l3685 23AC                                            l3677 236C  
                                          l2975 2868                                            l2983 2638  
                                          l2967 27A0                                            l2959 2740  
                                          l3599 2852                                            l2991 275C  
                                          l3695 23DE                                            l3687 23C4  
                                          l3679 2370                                            l2985 2648  
                                          l2977 2604                                            l2969 27A2  
                                          l2993 276C                                            l3697 23E6  
                                          l3689 23CC                                            l2979 2618  
                                          l2987 2748                                            l3699 23EE  
                                          l2997 18EC                                            l2989 275A  
                                          l2999 18FC                                            u3000 13D6  
                                          u3001 13D2                                            u3010 13EA  
                                          u3011 13E6                                            u3020 1404  
                                          u3100 1CF4                                            u3021 1400  
                                          u3101 1CF0                                            _LATA 0F89  
                                          u3030 143E                                            u3110 1D04  
                                          _LATB 0F8A                                            u3031 143A  
                                          u3111 1D00                                            _LATC 0F8B  
                                          u3040 1450                                            u3200 1ED0  
                                          u3120 1D48                                            _LATD 0F8C  
                                          u3041 144C                                            u3201 1ECC  
                                          u3121 1D44                                            _LATE 0F8D  
                                          u3050 1460                                            u3210 1EE6  
                                          u3130 1D5A                                            _LATF 0F8E  
                                          u3051 145C                                            u3211 1EE2  
                                          u3131 1D56                                            _LATG 0F8F  
                                          u3060 1480                                            u3300 2020  
                                          u3220 1F04                                            u3140 1D6A  
                                          _LATH 0F90                                            u3061 147C  
                                          u3301 201C                                            u3221 1F00  
                                          u3141 1D66                                            u3070 1492  
                                          u3310 204E                                            u3230 1F24  
                                          u3150 1DAA                                            u3071 148E  
                                          u3311 204A                                            u3231 1F20  
                                          u3151 1DA6                                            u3080 14AE  
                                          u3240 1F36                                            u3160 1DEA  
                                          u3400 1720                                            u3320 14DC  
                                          u2600 19DC                                            u3081 14AA  
                                          u3241 1F32                                            u3161 1DE6  
                                          u3321 14D8                                            u2601 19D8  
                                          u3250 1F64                                            u3170 1E60  
                                          u3090 1CE2                                            u3410 177A  
                                          u3330 14EE                                            u2610 19FE  
                                          u3251 1F60                                            u3171 1E5C  
                                          u3091 1CDE                                            u3411 1776  
                                          u3331 14EA                                            u2611 19FA  
                                          u2700 101C                                            u3260 1F7A  
                                          u3180 1E82                                            u3500 18CE  
                                          u3420 179A                                            u3340 14FE  
                                          u2701 1018                                            u3261 1F76  
                                          u3181 1E7E                                            u3501 18CA  
                                          u3421 1796                                            u3405 1716  
                                          u3341 14FA                                            u3510 2554  
                                          u2710 102E                                            u3270 1F8E  
                                          u3190 1EAC                                            u3430 17AC  
                                          u3350 153E                                            u2630 1A6E  
                                          u2550 276C                                            u3511 2550  
                                          u2711 102A                                            u3271 1F8A  
                                          u3191 1EA8                                            u3431 17A8  
                                          u3351 153A                                            u2631 1A6A  
                                          u2551 2768                                            u3520 2572  
                                          u2800 1188                                            u2720 103E  
                                          u3280 1FA8                                            u3440 17DA  
                                          u3360 1550                                            u3600 21AC  
                                          u2640 1AA6                                            u2560 1930  
                                          u3521 256E                                            u2801 1182  
                                          u2721 103A                                            u3281 1FA4  
                                          u3441 17D6                                            u3361 154C  
                                          u3601 21A8                                            u2641 1AA2  
                                          u2625 1A2E                                            u2561 192C  
                                          u3530 2588                                            u2810 118A  
                                          u2730 1080                                            u3290 1FF0  
                                          u3450 17F0                                            u3370 1560  
                                          u3610 21BA                                            u2650 1B1C  
                                          u2626 1A38                                            u2570 195E  
                                          u3531 2584                                            u2731 107C  
                                          u3291 1FEC                                            u3451 17EC  
                                          u3371 155C                                            u3611 21B6  
                                          u2651 1B18                                            u2627 1A48  
                                          u2571 195A                                            u2900 12A4  
                                          u2820 11B2                                            u2740 1096  
                                          u3460 1804                                            u3380 1596  
                                          u3620 21F4                                            u3540 2074  
                                          u2660 1BB8                                            u2580 196C  
                                          u2901 12A0                                            u2821 11AE  
                                          u2741 1092                                            u3461 1800  
                                          u3381 1592                                            u3621 21F0  
                                          u3541 2070                                            u2661 1BB4  
                                          u2581 1968                                            u2910 12EA  
                                          u2830 11D0                                            u2750 10A8  
                                          u3470 181E                                            u3390 15A6  
                                          u3630 2202                                            u3550 2082  
                                          u2670 1C20                                            u2590 19AE  
                                          u2911 12E6                                            u2831 11CC  
                                          u2751 10A4                                            u3471 181A  
                                          u3391 15A2                                            u3631 21FE  
                                          u3551 207E                                            u2671 1C1C  
                                          u2591 19AA                                            u3640 288E  
                                          u2920 1320                                            u2840 11F0  
                                          u2760 10B8                                            u3480 1866  
                                          u3560 20DE                                            u2680 1C36  
                                          u3641 288A                                            u2921 131C  
                                          u2841 11EC                                            u2761 10B4  
                                          u3481 1862                                            u3561 20DA  
                                          u2681 1C32                                            u2930 1330  
                                          u2850 11FE                                            u2770 10F4  
                                          u3490 1894                                            u3570 2134  
                                          u3650 25FE                                            u2931 132C  
                                          u2851 11FA                                            u2771 10F0  
                                          u3491 1890                                            u3571 2130  
                                          u3651 25FA                                            u3660 2478  
                                          u2940 135C                                            u2860 120E  
                                          u2780 1102                                            u3580 217E  
                                          u3661 2474                                            u2941 1358  
                                          u2861 120A                                            u2781 10FE  
                                          u3581 217A                                            u3670 2498  
                                          u2950 136C                                            u2870 1240  
                                          u2790 1170                                            u3590 219C  
                                          u2951 1368                                            u2871 123C  
                                          u2791 116C                                            u3591 2198  
                                          u2695 1CA2                                            u2960 1388  
                                          u2880 124E                                            u3680 22FC  
                                          u2961 1384                                            u2881 124A  
                                          u3681 22F8                                            u2970 1398  
                                          u2890 126C                                            u3690 23C4  
                                          u3675 248E                                            u2971 1394  
                                          u2891 1268                                            u3691 23C0  
                                          u2980 13AA                                            u2981 13A6  
                                          u2990 13C0                                            u2991 13BC  
                                          i2l72 0036                                            i2l77 0068  
                                          i2l78 0068                                   _EUSART1_Write 287E  
                                          _main 2356                                            fsr1h 0FE2  
                                          fsr2h 0FDA                                            fsr1l 0FE1  
                                          fsr2l 0FD9                                            btemp 0057  
                                          prodh 0FF4                                            prodl 0FF3  
                                          start 0074                                 _timer5ReloadVal 0046  
                               ___fldiv@new_exp 0016                                    ___param_bank 0000  
                       __end_of_TMR0_Initialize 27BA                  ??_TMR0_DefaultInterruptHandler 0001  
                 __end_of_OSCILLATOR_Initialize 28A8                                 __end_of___fladd 14C2  
                                         ?_main 0001                                 __end_of___fldiv 2062  
                               __end_of___flmul 18EC                                           _T0CON 0FD5  
                                         _T5CON 0F7B                                           i2l200 24D0  
                               __end_of___lwmod 25A6                                           i2l204 2540  
                                         i2l190 26CC                                           i2l177 2848  
                                         i2l283 27F2                                           i2l197 24AE  
                                         i2l289 28F2                                           _TMR0H 0FD7  
                                         _TMR0L 0FD6                                           _TMR5H 0F7D  
                                         _TMR5L 0F7C                                           _TRISA 0F92  
                                         _TRISB 0F93                                           _TRISC 0F94  
                                         _TRISD 0F95                                           _TRISE 0F96  
                                         _TRISF 0F97                                           _TRISG 0F98  
                                         _TRISH 0F99                       ?_TMR0_SetInterruptHandler 0005  
                              __end_of_TMR0_ISR 27F4                                __end_of_TMR5_ISR 26CE  
                                         _errno 0042                                           _servo 004B  
                                         _sqrtf 18EC                                  ?_EUSART1_Write 0001  
                                         pclath 0FFA                                           pclatu 0FFB  
                                         tablat 0FF5                                           ttemp5 0058  
                                         ttemp6 005B                                           ttemp7 005F  
                                         status 0FD8                                           wtemp8 0058  
            _EUSART1_DefaultFramingErrorHandler 0000                                 _TMR5_Initialize 270A  
                               __initialization 26CE                      __end_of_EUSART1_Initialize 264E  
                                  __end_of_main 2404                     ?_INTERRUPT_InterruptManager 0001  
                                        ??_main 003F                        _TMR5_SetInterruptHandler 28A8  
                                 __activetblptr 0003                                          _ADCON0 0FC2  
                                        _ADCON1 0FC1                                          _ADCON2 0FC0  
                                        _ADRESH 0FC4                                          _ADRESL 0FC3  
                                        _ANCON0 0F25                                          _ANCON1 0F24  
                                        _ANCON2 0F23                                          ?_sqrtf 0005  
                                        _T5GCON 0F7A                                          i2l1231 24C4  
                                        i2l1233 24D2                                          i2l1225 24A8  
                                        i2l1235 24E4                                          i2l1227 24B0  
                                        i2l1243 250E                                          i2l1237 24F0  
                                        i2l1229 24B2                                          i2l1239 2502  
                                        i2l2161 283A                                          i2l2153 2822  
                                        i2l1259 28EE                                          i2l2155 2830  
                                        i2l2163 2840                                          i2l2165 2844  
                                        i2l2157 2832                                          i2l2159 2836  
                                        i2l1881 27C4                                          i2l1883 27D8  
                                        i2l1875 27BA                                          i2l3723 2522  
                                        i2l2851 0020                                          i2l1877 27BC  
                                        i2l2853 002E                                          i2l1879 27C0  
                                        i2l2791 2692                                          i2l2855 0044  
                                        i2l2793 269E                                          i2l2857 0052  
                                        i2l2849 0012                                          i2l2795 26B2  
                                        i2l2859 0060                                          i2l2789 2690  
                                        _RCREG1 0FAE                                          _RCSTA1 0FAB  
                                        _OSCCON 0FD3                                          _SPBRG1 0FAF  
                                        i2u2_40 24C4                                          i2u2_41 24C0  
                                        i2u3_40 24E4                                          i2u3_41 24E0  
                                        i2u4_40 2502                                          i2u4_41 24FE  
                                        _TXREG1 0FAD                                __end_of___xxtofl 2216  
                                        _TXSTA1 0FAC                                       ??___fladd 0026  
                                     ??___fldiv 000D                                       ??___flmul 000D  
                                     ??___lwmod 0009                        ?_EUSART1_SetErrorHandler 0005  
                              ?_TMR0_Initialize 0001                                          clear_0 26E8  
                                        clear_1 26FA                                          _prag_T 0056  
                                        isa$std 0001                ??_EUSART1_SetOverrunErrorHandler 0008  
               ?_EUSART1_SetOverrunErrorHandler 0005                                    __pdataCOMRAM 0056  
                                  __mediumconst 0000                                          tblptrh 0FF7  
                                        tblptrl 0FF6                                          tblptru 0FF8  
                      ADC_GetConversion@channel 0009                                 ??_EUSART1_Write 0005  
                                        sqrtf@i 0012                                          sqrtf@m 001E  
                                        sqrtf@q 0016        TMR0_SetInterruptHandler@InterruptHandler 0005  
      TMR5_SetInterruptHandler@InterruptHandler 0005                                          sqrtf@r 0022  
                                        sqrtf@s 000E                                          sqrtf@t 001A  
                                        sqrtf@x 0005                         __end_of_TMR5_Initialize 2746  
                                  ___xxtofl@arg 0014                                    ___xxtofl@exp 0013  
                             _SYSTEM_Initialize 284A                                    ___xxtofl@val 000A  
                                    __accesstop 0060                         __end_of__initialization 2700  
                                 ??_StandardDev 0032                              ?_SYSTEM_Initialize 0001  
                                 ___rparam_used 0001                                 _TMR5_WriteTimer 2822  
                                __pcstackCOMRAM 0001                             ??_SYSTEM_Initialize 000A  
                                     ?_TMR0_ISR 0001                                       ?_TMR5_ISR 0001  
                                 __end_of_sqrtf 1CC8                       __end_of_SYSTEM_Initialize 2868  
                                       ??_sqrtf 0009                           __end_of_AveregeFilter 24A8  
                                    __pnvCOMRAM 004E                                   ?_sampleSignal 0001  
               __end_of_EUSART1_SetErrorHandler 28EE                __end_of_TMR0_SetInterruptHandler 28C4  
                                    ??_TMR0_ISR 0001                             __end_of_StandardDev 2356  
                                    ??_TMR5_ISR 0003          __end_of_EUSART1_SetFramingErrorHandler 28E0  
                _EUSART1_SetFramingErrorHandler 28D2                      __end_of_calculateThreshold 2822  
                                     ?___xxtofl 000A                                         _REFOCON 0F2A  
                                       _OSCCON2 0F64                                         _OSCTUNE 0F9B  
                                       _SPBRGH1 0FD4                         __end_of_TMR5_WriteTimer 284A  
                              ?_TMR5_Initialize 0001                                  ??_sampleSignal 000A  
                          _ADC_InterruptHandler 003F                                         __Hparam 0000  
                                       __Lparam 0000                      ??_TMR5_SetInterruptHandler 0008  
                                       ___fladd 1002                                         ___fldiv 1CC8  
                                       ___flmul 14C2                                         ___lwmod 2542  
                                  __psmallconst 1000                                         __pcinit 26CE  
                                       __ramtop 1000                                         __ptext0 2356  
                                       __ptext1 25A6                                         __ptext2 2746  
                                       __ptext3 27F4                                         __ptext4 2216  
                                       __ptext5 18EC                                         __ptext6 2062  
                                       __ptext7 14C2                                         __ptext8 1CC8  
                                       __ptext9 1002                                       _T0CONbits 0FD5  
                         _OSCILLATOR_Initialize 2894                                      ??___xxtofl 000E  
                            _EUSART1_Initialize 2604                        ??_PIN_MANAGER_Initialize 0005  
                                     _T5CONbits 0F7B                            end_of_initialization 2700  
                           ?_EUSART1_Initialize 0001                     _EUSART1_OverrunErrorHandler 0063  
                                   _StandardDev 2216                                         postdec1 0FE5  
                                       postdec2 0FDD                                         postinc0 0FEE  
                                       postinc2 0FDE                            ??_EUSART1_Initialize 0008  
                                       sqrtf@ix 0026                        _TMR0_SetInterruptHandler 28B6  
                         _TMR5_InterruptHandler 0051                                     ___fladd@grs 002D  
                                 ___xxtofl@sign 0012                                     ___fldiv@grs 0018  
                                   ___fldiv@rem 0011                             EUSART1_Write@txData 0005  
                              ?_TMR5_WriteTimer 0001                         TMR5_WriteTimer@timerVal 0001  
                                   ___flmul@grs 0013                                      main@stdDev 0069  
                  __end_of_INTERRUPT_Initialize 28F8                                   __pidataCOMRAM 28F8  
                                _ADC_Initialize 2868                          ?_OSCILLATOR_Initialize 0001  
                           start_initialization 26CE                            __end_of_sampleSignal 2604  
          __end_of_TMR5_DefaultInterruptHandler 2542                    _TMR5_DefaultInterruptHandler 24A8  
                         __end_of_EUSART1_Write 2894                          __end_of_ADC_Initialize 287E  
                                     ___fladd@a 0022                                       ___fladd@b 001E  
                                     ___fldiv@a 0009                                       ___fldiv@b 0005  
                                   __pbssBIGRAM 0071                                       ___flmul@a 0009  
                                     ___flmul@b 0005                                     __pbssCOMRAM 003F  
                                 __pcstackBANK0 0069                 fp__TMR5_DefaultInterruptHandler 0000  
                 ?_TMR5_DefaultInterruptHandler 0001                                  _circularBuffer 0071  
              ??_EUSART1_SetFramingErrorHandler 0008                 ?_EUSART1_SetFramingErrorHandler 0005  
                            _calculateThreshold 27F4                           _TMR0_InterruptHandler 004E  
                                     __pnvBANK0 0060                                AveregeFilter@sum 0010  
                        _PIN_MANAGER_Initialize 264E                                  AveregeFilter@i 0014  
                           ?_calculateThreshold 001E                                       __pintcode 0008  
                                      ?___fladd 001E                                        ?___fldiv 0005  
                                      ?___flmul 0005                                       _flag_tmr0 0049  
                                      ?___lwmod 0005                                 ?_ADC_Initialize 0001  
                  ??_INTERRUPT_InterruptManager 0003                                     __smallconst 1000  
                                      _BAUDCON1 0F65              _EUSART1_DefaultOverrunErrorHandler 0000  
                          _EUSART1_ErrorHandler 0060                         _EUSART1_SetErrorHandler 28E0  
                          ??_calculateThreshold 0022                                    _scaled_value 004A  
                          _INTERRUPT_Initialize 28F4                               ??_TMR0_Initialize 0008  
       EUSART1_SetErrorHandler@interruptHandler 0005                                        _LATBbits 0F8A  
                                  ?_StandardDev 002E                                        _PIE5bits 0FB9  
                                   _bufferIndex 0054                                        i2u114_40 27D8  
                                      i2u114_41 27D4                                        i2u115_48 27DE  
                                      i2u115_49 27F2                                        i2u133_40 2830  
                                      i2u133_41 282C                                        i2u250_40 002E  
                                      i2u250_41 002A                                        i2u243_40 26B2  
                                      i2u251_40 0044                                        i2u243_41 26AE  
                                      i2u251_41 0040                                        i2u252_40 0052  
                                      i2u252_41 004E                                        i2u244_48 26B8  
                                      i2u253_40 0060                      ??_TMR0_SetInterruptHandler 0008  
                                      i2u244_49 26CC                                        i2u253_41 005C  
                                      i2u249_40 0020                                        i2u249_41 001C  
                                      _PIR1bits 0F9E                                        _PIR5bits 0FBA  
                                      _RCONbits 0FD0                                     _brojac_T_on 004C  
                                      _TMR0_ISR 27BA                                        _TMR5_ISR 2690  
                                    _ADCON0bits 0FC2                                       main@value 006D  
                     ?_TMR5_SetInterruptHandler 0005                        calculateThreshold@stdDev 001E  
                         ?_INTERRUPT_Initialize 0001                             StandardDev@variance 003A  
                                 _AveregeFilter 2404                  ??_TMR5_DefaultInterruptHandler 0001  
                                      __Hrparam 0000                                    _sampleSignal 25A6  
                                      __Lrparam 0000                               _ADC_GetConversion 2746  
                       ??_OSCILLATOR_Initialize 0005                              ?_ADC_GetConversion 0005  
                     ??_EUSART1_SetErrorHandler 0008                     _EUSART1_DefaultErrorHandler 0000  
                           ??_ADC_GetConversion 0007                                        ___xxtofl 2062  
                                      __ptext10 284A                                        __ptext11 270A  
                                      __ptext20 28D2                                        __ptext12 28A8  
                                      __ptext21 28E0                                        __ptext13 2780  
                                      __ptext30 27BA                                        __ptext22 2868  
                                      __ptext14 28B6                                        __ptext31 28EE  
                                      __ptext23 287E                                        __ptext15 264E  
                                      __ptext32 0000                                        __ptext24 2404  
                                      __ptext16 2894                                        __ptext25 2542  
                                      __ptext17 28F4                                        __ptext18 2604  
                                      __ptext27 2690                                        __ptext19 28C4  
                                      __ptext28 2822                                        __ptext29 24A8  
                                      _brojac_T 004D                                  ?_AveregeFilter 000A  
                                    _T5GCONbits 0F7A            __end_of_TMR0_DefaultInterruptHandler 28F4  
                  _TMR0_DefaultInterruptHandler 28EE                       __end_of_ADC_GetConversion 2780  
EUSART1_SetOverrunErrorHandler@interruptHandler 0005                                        isa$xinst 0000  
                                      int$flags 0057                              StandardDev@average 002E  
                            sampleSignal@sample 000A              __end_of_INTERRUPT_InterruptManager 0074  
                    _INTERRUPT_InterruptManager 0008                     _EUSART1_FramingErrorHandler 0066  
                             ??_TMR5_Initialize 0008                              StandardDev@razlika 0036  
                                    _INTCONbits 0FF2                          ??_INTERRUPT_Initialize 0005  
                                      intlevel2 0000                                ___lwmod@dividend 0005  
                       ?_PIN_MANAGER_Initialize 0001          __end_of_EUSART1_SetOverrunErrorHandler 28D2  
                _EUSART1_SetOverrunErrorHandler 28C4                                      _RCSTA1bits 0FAB  
                              ??_ADC_Initialize 0005                 fp__TMR0_DefaultInterruptHandler 0000  
                 ?_TMR0_DefaultInterruptHandler 0001  EUSART1_SetFramingErrorHandler@interruptHandler 0005  
                            _eusart1RxLastError 0048                                 ___lwmod@divisor 0007  
                               _TMR0_Initialize 2780                                 ___lwmod@counter 0009  
                                  StandardDev@i 003E                                 ??_AveregeFilter 000C  
                                 ___fladd@signs 002A                  __end_of_PIN_MANAGER_Initialize 2690  
                                  ___fladd@aexp 002B                                    ___fladd@bexp 002C  
